
RovController.elf:     file format elf32-avr

Sections:
Idx Name          Size      VMA       LMA       File off  Algn
  0 .data         000000e8  00800200  0000288e  00002922  2**0
                  CONTENTS, ALLOC, LOAD, DATA
  1 .text         0000288e  00000000  00000000  00000094  2**1
                  CONTENTS, ALLOC, LOAD, READONLY, CODE
  2 .bss          000005fe  008002e8  008002e8  00002a0a  2**0
                  ALLOC
  3 .comment      00000030  00000000  00000000  00002a0a  2**0
                  CONTENTS, READONLY
  4 .note.gnu.avr.deviceinfo 00000040  00000000  00000000  00002a3c  2**2
                  CONTENTS, READONLY
  5 .debug_aranges 00000838  00000000  00000000  00002a7c  2**0
                  CONTENTS, READONLY, DEBUGGING
  6 .debug_info   00013156  00000000  00000000  000032b4  2**0
                  CONTENTS, READONLY, DEBUGGING
  7 .debug_abbrev 0000476d  00000000  00000000  0001640a  2**0
                  CONTENTS, READONLY, DEBUGGING
  8 .debug_line   00004e44  00000000  00000000  0001ab77  2**0
                  CONTENTS, READONLY, DEBUGGING
  9 .debug_frame  000019e8  00000000  00000000  0001f9bc  2**2
                  CONTENTS, READONLY, DEBUGGING
 10 .debug_str    000058ba  00000000  00000000  000213a4  2**0
                  CONTENTS, READONLY, DEBUGGING
 11 .debug_loc    000089b3  00000000  00000000  00026c5e  2**0
                  CONTENTS, READONLY, DEBUGGING
 12 .debug_ranges 00000778  00000000  00000000  0002f611  2**0
                  CONTENTS, READONLY, DEBUGGING

Disassembly of section .text:

00000000 <__vectors>:
       0:	4b c1       	rjmp	.+662    	; 0x298 <__ctors_end>
       2:	00 00       	nop
       4:	7a c1       	rjmp	.+756    	; 0x2fa <__bad_interrupt>
       6:	00 00       	nop
       8:	78 c1       	rjmp	.+752    	; 0x2fa <__bad_interrupt>
       a:	00 00       	nop
       c:	76 c1       	rjmp	.+748    	; 0x2fa <__bad_interrupt>
       e:	00 00       	nop
      10:	74 c1       	rjmp	.+744    	; 0x2fa <__bad_interrupt>
      12:	00 00       	nop
      14:	72 c1       	rjmp	.+740    	; 0x2fa <__bad_interrupt>
      16:	00 00       	nop
      18:	70 c1       	rjmp	.+736    	; 0x2fa <__bad_interrupt>
      1a:	00 00       	nop
      1c:	6e c1       	rjmp	.+732    	; 0x2fa <__bad_interrupt>
      1e:	00 00       	nop
      20:	6c c1       	rjmp	.+728    	; 0x2fa <__bad_interrupt>
      22:	00 00       	nop
      24:	6a c1       	rjmp	.+724    	; 0x2fa <__bad_interrupt>
      26:	00 00       	nop
      28:	68 c1       	rjmp	.+720    	; 0x2fa <__bad_interrupt>
      2a:	00 00       	nop
      2c:	66 c1       	rjmp	.+716    	; 0x2fa <__bad_interrupt>
      2e:	00 00       	nop
      30:	64 c1       	rjmp	.+712    	; 0x2fa <__bad_interrupt>
      32:	00 00       	nop
      34:	62 c1       	rjmp	.+708    	; 0x2fa <__bad_interrupt>
      36:	00 00       	nop
      38:	60 c1       	rjmp	.+704    	; 0x2fa <__bad_interrupt>
      3a:	00 00       	nop
      3c:	5e c1       	rjmp	.+700    	; 0x2fa <__bad_interrupt>
      3e:	00 00       	nop
      40:	5c c1       	rjmp	.+696    	; 0x2fa <__bad_interrupt>
      42:	00 00       	nop
      44:	5a c1       	rjmp	.+692    	; 0x2fa <__bad_interrupt>
      46:	00 00       	nop
      48:	58 c1       	rjmp	.+688    	; 0x2fa <__bad_interrupt>
      4a:	00 00       	nop
      4c:	56 c1       	rjmp	.+684    	; 0x2fa <__bad_interrupt>
      4e:	00 00       	nop
      50:	54 c1       	rjmp	.+680    	; 0x2fa <__bad_interrupt>
      52:	00 00       	nop
      54:	52 c1       	rjmp	.+676    	; 0x2fa <__bad_interrupt>
      56:	00 00       	nop
      58:	50 c1       	rjmp	.+672    	; 0x2fa <__bad_interrupt>
      5a:	00 00       	nop
      5c:	4e c1       	rjmp	.+668    	; 0x2fa <__bad_interrupt>
      5e:	00 00       	nop
      60:	4c c1       	rjmp	.+664    	; 0x2fa <__bad_interrupt>
      62:	00 00       	nop
      64:	0c 94 86 0c 	jmp	0x190c	; 0x190c <__vector_25>
      68:	0c 94 c2 0c 	jmp	0x1984	; 0x1984 <__vector_26>
      6c:	46 c1       	rjmp	.+652    	; 0x2fa <__bad_interrupt>
      6e:	00 00       	nop
      70:	44 c1       	rjmp	.+648    	; 0x2fa <__bad_interrupt>
      72:	00 00       	nop
      74:	42 c1       	rjmp	.+644    	; 0x2fa <__bad_interrupt>
      76:	00 00       	nop
      78:	40 c1       	rjmp	.+640    	; 0x2fa <__bad_interrupt>
      7a:	00 00       	nop
      7c:	3e c1       	rjmp	.+636    	; 0x2fa <__bad_interrupt>
      7e:	00 00       	nop
      80:	3c c1       	rjmp	.+632    	; 0x2fa <__bad_interrupt>
      82:	00 00       	nop
      84:	3a c1       	rjmp	.+628    	; 0x2fa <__bad_interrupt>
      86:	00 00       	nop
      88:	38 c1       	rjmp	.+624    	; 0x2fa <__bad_interrupt>
      8a:	00 00       	nop
      8c:	36 c1       	rjmp	.+620    	; 0x2fa <__bad_interrupt>
      8e:	00 00       	nop
      90:	0c 94 0e 0d 	jmp	0x1a1c	; 0x1a1c <__vector_36>
      94:	0c 94 4a 0d 	jmp	0x1a94	; 0x1a94 <__vector_37>
      98:	30 c1       	rjmp	.+608    	; 0x2fa <__bad_interrupt>
      9a:	00 00       	nop
      9c:	0c 94 96 0f 	jmp	0x1f2c	; 0x1f2c <__vector_39>
      a0:	2c c1       	rjmp	.+600    	; 0x2fa <__bad_interrupt>
      a2:	00 00       	nop
      a4:	2a c1       	rjmp	.+596    	; 0x2fa <__bad_interrupt>
      a6:	00 00       	nop
      a8:	28 c1       	rjmp	.+592    	; 0x2fa <__bad_interrupt>
      aa:	00 00       	nop
      ac:	26 c1       	rjmp	.+588    	; 0x2fa <__bad_interrupt>
      ae:	00 00       	nop
      b0:	24 c1       	rjmp	.+584    	; 0x2fa <__bad_interrupt>
      b2:	00 00       	nop
      b4:	22 c1       	rjmp	.+580    	; 0x2fa <__bad_interrupt>
      b6:	00 00       	nop
      b8:	20 c1       	rjmp	.+576    	; 0x2fa <__bad_interrupt>
      ba:	00 00       	nop
      bc:	1e c1       	rjmp	.+572    	; 0x2fa <__bad_interrupt>
      be:	00 00       	nop
      c0:	1c c1       	rjmp	.+568    	; 0x2fa <__bad_interrupt>
      c2:	00 00       	nop
      c4:	1a c1       	rjmp	.+564    	; 0x2fa <__bad_interrupt>
      c6:	00 00       	nop
      c8:	18 c1       	rjmp	.+560    	; 0x2fa <__bad_interrupt>
      ca:	00 00       	nop
      cc:	0c 94 96 0d 	jmp	0x1b2c	; 0x1b2c <__vector_51>
      d0:	0c 94 d2 0d 	jmp	0x1ba4	; 0x1ba4 <__vector_52>
      d4:	12 c1       	rjmp	.+548    	; 0x2fa <__bad_interrupt>
      d6:	00 00       	nop
      d8:	0c 94 1e 0e 	jmp	0x1c3c	; 0x1c3c <__vector_54>
      dc:	0c 94 5a 0e 	jmp	0x1cb4	; 0x1cb4 <__vector_55>
      e0:	0c c1       	rjmp	.+536    	; 0x2fa <__bad_interrupt>
      e2:	00 00       	nop
      e4:	9c 10       	cpse	r9, r12
      e6:	9f 10       	cpse	r9, r15
      e8:	9f 10       	cpse	r9, r15
      ea:	9f 10       	cpse	r9, r15
      ec:	9f 10       	cpse	r9, r15
      ee:	9f 10       	cpse	r9, r15
      f0:	9f 10       	cpse	r9, r15
      f2:	9f 10       	cpse	r9, r15
      f4:	b7 0f       	add	r27, r23
      f6:	9f 10       	cpse	r9, r15
      f8:	9f 10       	cpse	r9, r15
      fa:	9f 10       	cpse	r9, r15
      fc:	9f 10       	cpse	r9, r15
      fe:	9f 10       	cpse	r9, r15
     100:	9f 10       	cpse	r9, r15
     102:	9f 10       	cpse	r9, r15
     104:	b7 0f       	add	r27, r23
     106:	9f 10       	cpse	r9, r15
     108:	9f 10       	cpse	r9, r15
     10a:	9f 10       	cpse	r9, r15
     10c:	9f 10       	cpse	r9, r15
     10e:	9f 10       	cpse	r9, r15
     110:	9f 10       	cpse	r9, r15
     112:	9f 10       	cpse	r9, r15
     114:	bf 0f       	add	r27, r31
     116:	9f 10       	cpse	r9, r15
     118:	9f 10       	cpse	r9, r15
     11a:	9f 10       	cpse	r9, r15
     11c:	9f 10       	cpse	r9, r15
     11e:	9f 10       	cpse	r9, r15
     120:	9f 10       	cpse	r9, r15
     122:	9f 10       	cpse	r9, r15
     124:	e4 0f       	add	r30, r20
     126:	9f 10       	cpse	r9, r15
     128:	9f 10       	cpse	r9, r15
     12a:	9f 10       	cpse	r9, r15
     12c:	9f 10       	cpse	r9, r15
     12e:	9f 10       	cpse	r9, r15
     130:	9f 10       	cpse	r9, r15
     132:	9f 10       	cpse	r9, r15
     134:	bf 0f       	add	r27, r31
     136:	9f 10       	cpse	r9, r15
     138:	9f 10       	cpse	r9, r15
     13a:	9f 10       	cpse	r9, r15
     13c:	9f 10       	cpse	r9, r15
     13e:	9f 10       	cpse	r9, r15
     140:	9f 10       	cpse	r9, r15
     142:	9f 10       	cpse	r9, r15
     144:	e9 0f       	add	r30, r25
     146:	9f 10       	cpse	r9, r15
     148:	9f 10       	cpse	r9, r15
     14a:	9f 10       	cpse	r9, r15
     14c:	9f 10       	cpse	r9, r15
     14e:	9f 10       	cpse	r9, r15
     150:	9f 10       	cpse	r9, r15
     152:	9f 10       	cpse	r9, r15
     154:	ee 0f       	add	r30, r30
     156:	9f 10       	cpse	r9, r15
     158:	9f 10       	cpse	r9, r15
     15a:	9f 10       	cpse	r9, r15
     15c:	9f 10       	cpse	r9, r15
     15e:	9f 10       	cpse	r9, r15
     160:	9f 10       	cpse	r9, r15
     162:	9f 10       	cpse	r9, r15
     164:	ff 0f       	add	r31, r31
     166:	9f 10       	cpse	r9, r15
     168:	9f 10       	cpse	r9, r15
     16a:	9f 10       	cpse	r9, r15
     16c:	9f 10       	cpse	r9, r15
     16e:	9f 10       	cpse	r9, r15
     170:	9f 10       	cpse	r9, r15
     172:	9f 10       	cpse	r9, r15
     174:	28 10       	cpse	r2, r8
     176:	9f 10       	cpse	r9, r15
     178:	9f 10       	cpse	r9, r15
     17a:	9f 10       	cpse	r9, r15
     17c:	9f 10       	cpse	r9, r15
     17e:	9f 10       	cpse	r9, r15
     180:	9f 10       	cpse	r9, r15
     182:	9f 10       	cpse	r9, r15
     184:	f3 0f       	add	r31, r19
     186:	9f 10       	cpse	r9, r15
     188:	9f 10       	cpse	r9, r15
     18a:	9f 10       	cpse	r9, r15
     18c:	9f 10       	cpse	r9, r15
     18e:	9f 10       	cpse	r9, r15
     190:	9f 10       	cpse	r9, r15
     192:	9f 10       	cpse	r9, r15
     194:	0d 10       	cpse	r0, r13
     196:	9f 10       	cpse	r9, r15
     198:	9f 10       	cpse	r9, r15
     19a:	9f 10       	cpse	r9, r15
     19c:	9f 10       	cpse	r9, r15
     19e:	9f 10       	cpse	r9, r15
     1a0:	9f 10       	cpse	r9, r15
     1a2:	9f 10       	cpse	r9, r15
     1a4:	2a 10       	cpse	r2, r10
     1a6:	9f 10       	cpse	r9, r15
     1a8:	9f 10       	cpse	r9, r15
     1aa:	9f 10       	cpse	r9, r15
     1ac:	9f 10       	cpse	r9, r15
     1ae:	9f 10       	cpse	r9, r15
     1b0:	9f 10       	cpse	r9, r15
     1b2:	9f 10       	cpse	r9, r15
     1b4:	2a 10       	cpse	r2, r10
     1b6:	9f 10       	cpse	r9, r15
     1b8:	9f 10       	cpse	r9, r15
     1ba:	9f 10       	cpse	r9, r15
     1bc:	9f 10       	cpse	r9, r15
     1be:	9f 10       	cpse	r9, r15
     1c0:	9f 10       	cpse	r9, r15
     1c2:	9f 10       	cpse	r9, r15
     1c4:	2a 10       	cpse	r2, r10
     1c6:	9f 10       	cpse	r9, r15
     1c8:	9f 10       	cpse	r9, r15
     1ca:	9f 10       	cpse	r9, r15
     1cc:	9f 10       	cpse	r9, r15
     1ce:	9f 10       	cpse	r9, r15
     1d0:	9f 10       	cpse	r9, r15
     1d2:	9f 10       	cpse	r9, r15
     1d4:	2a 10       	cpse	r2, r10
     1d6:	9f 10       	cpse	r9, r15
     1d8:	9f 10       	cpse	r9, r15
     1da:	9f 10       	cpse	r9, r15
     1dc:	9f 10       	cpse	r9, r15
     1de:	9f 10       	cpse	r9, r15
     1e0:	9f 10       	cpse	r9, r15
     1e2:	9f 10       	cpse	r9, r15
     1e4:	33 10       	cpse	r3, r3
     1e6:	9f 10       	cpse	r9, r15
     1e8:	9f 10       	cpse	r9, r15
     1ea:	9f 10       	cpse	r9, r15
     1ec:	9f 10       	cpse	r9, r15
     1ee:	9f 10       	cpse	r9, r15
     1f0:	9f 10       	cpse	r9, r15
     1f2:	9f 10       	cpse	r9, r15
     1f4:	63 10       	cpse	r6, r3
     1f6:	9f 10       	cpse	r9, r15
     1f8:	9f 10       	cpse	r9, r15
     1fa:	9f 10       	cpse	r9, r15
     1fc:	9f 10       	cpse	r9, r15
     1fe:	9f 10       	cpse	r9, r15
     200:	9f 10       	cpse	r9, r15
     202:	9f 10       	cpse	r9, r15
     204:	33 10       	cpse	r3, r3
     206:	9f 10       	cpse	r9, r15
     208:	9f 10       	cpse	r9, r15
     20a:	9f 10       	cpse	r9, r15
     20c:	9f 10       	cpse	r9, r15
     20e:	9f 10       	cpse	r9, r15
     210:	9f 10       	cpse	r9, r15
     212:	9f 10       	cpse	r9, r15
     214:	63 10       	cpse	r6, r3
     216:	9f 10       	cpse	r9, r15
     218:	9f 10       	cpse	r9, r15
     21a:	9f 10       	cpse	r9, r15
     21c:	9f 10       	cpse	r9, r15
     21e:	9f 10       	cpse	r9, r15
     220:	9f 10       	cpse	r9, r15
     222:	9f 10       	cpse	r9, r15
     224:	4b 10       	cpse	r4, r11
     226:	9f 10       	cpse	r9, r15
     228:	9f 10       	cpse	r9, r15
     22a:	9f 10       	cpse	r9, r15
     22c:	9f 10       	cpse	r9, r15
     22e:	9f 10       	cpse	r9, r15
     230:	9f 10       	cpse	r9, r15
     232:	9f 10       	cpse	r9, r15
     234:	67 10       	cpse	r6, r7
     236:	9f 10       	cpse	r9, r15
     238:	9f 10       	cpse	r9, r15
     23a:	9f 10       	cpse	r9, r15
     23c:	9f 10       	cpse	r9, r15
     23e:	9f 10       	cpse	r9, r15
     240:	9f 10       	cpse	r9, r15
     242:	9f 10       	cpse	r9, r15
     244:	67 10       	cpse	r6, r7
     246:	9f 10       	cpse	r9, r15
     248:	9f 10       	cpse	r9, r15
     24a:	9f 10       	cpse	r9, r15
     24c:	9f 10       	cpse	r9, r15
     24e:	9f 10       	cpse	r9, r15
     250:	9f 10       	cpse	r9, r15
     252:	9f 10       	cpse	r9, r15
     254:	7c 10       	cpse	r7, r12
     256:	9f 10       	cpse	r9, r15
     258:	9f 10       	cpse	r9, r15
     25a:	9f 10       	cpse	r9, r15
     25c:	9f 10       	cpse	r9, r15
     25e:	9f 10       	cpse	r9, r15
     260:	9f 10       	cpse	r9, r15
     262:	9f 10       	cpse	r9, r15
     264:	96 10       	cpse	r9, r6
     266:	9f 10       	cpse	r9, r15
     268:	9f 10       	cpse	r9, r15
     26a:	9f 10       	cpse	r9, r15
     26c:	9f 10       	cpse	r9, r15
     26e:	9f 10       	cpse	r9, r15
     270:	9f 10       	cpse	r9, r15
     272:	9f 10       	cpse	r9, r15
     274:	96 10       	cpse	r9, r6

00000276 <__trampolines_end>:
     276:	45 00       	.word	0x0045	; ????
     278:	00 82       	st	Z, r0
     27a:	00 00       	nop
     27c:	40 00       	.word	0x0040	; ????
     27e:	20 00       	Address 0x0000027e is out of bounds.
.word	0xffff	; ????

0000027f <_ZL9arpreqhdr>:
     27f:	00 01 08 00 06 04 00 01 00                          .........

00000288 <__ctors_start>:
     288:	75 04       	cpc	r7, r5
     28a:	eb 0c       	add	r14, r11
     28c:	73 0d       	add	r23, r3
     28e:	fb 0d       	add	r31, r11
     290:	83 0e       	add	r8, r19
     292:	be 11       	cpse	r27, r14
     294:	1a 12       	cpse	r1, r26
     296:	2c 12       	cpse	r2, r28

00000298 <__ctors_end>:
     298:	11 24       	eor	r1, r1
     29a:	1f be       	out	0x3f, r1	; 63
     29c:	cf ef       	ldi	r28, 0xFF	; 255
     29e:	d1 e2       	ldi	r29, 0x21	; 33
     2a0:	de bf       	out	0x3e, r29	; 62
     2a2:	cd bf       	out	0x3d, r28	; 61
     2a4:	00 e0       	ldi	r16, 0x00	; 0
     2a6:	0c bf       	out	0x3c, r16	; 60

000002a8 <__do_copy_data>:
     2a8:	12 e0       	ldi	r17, 0x02	; 2
     2aa:	a0 e0       	ldi	r26, 0x00	; 0
     2ac:	b2 e0       	ldi	r27, 0x02	; 2
     2ae:	ee e8       	ldi	r30, 0x8E	; 142
     2b0:	f8 e2       	ldi	r31, 0x28	; 40
     2b2:	00 e0       	ldi	r16, 0x00	; 0
     2b4:	0b bf       	out	0x3b, r16	; 59
     2b6:	02 c0       	rjmp	.+4      	; 0x2bc <__do_copy_data+0x14>
     2b8:	07 90       	elpm	r0, Z+
     2ba:	0d 92       	st	X+, r0
     2bc:	a8 3e       	cpi	r26, 0xE8	; 232
     2be:	b1 07       	cpc	r27, r17
     2c0:	d9 f7       	brne	.-10     	; 0x2b8 <__do_copy_data+0x10>

000002c2 <__do_clear_bss>:
     2c2:	28 e0       	ldi	r18, 0x08	; 8
     2c4:	a8 ee       	ldi	r26, 0xE8	; 232
     2c6:	b2 e0       	ldi	r27, 0x02	; 2
     2c8:	01 c0       	rjmp	.+2      	; 0x2cc <.do_clear_bss_start>

000002ca <.do_clear_bss_loop>:
     2ca:	1d 92       	st	X+, r1

000002cc <.do_clear_bss_start>:
     2cc:	a6 3e       	cpi	r26, 0xE6	; 230
     2ce:	b2 07       	cpc	r27, r18
     2d0:	e1 f7       	brne	.-8      	; 0x2ca <.do_clear_bss_loop>

000002d2 <__do_global_ctors>:
     2d2:	11 e0       	ldi	r17, 0x01	; 1
     2d4:	cc e4       	ldi	r28, 0x4C	; 76
     2d6:	d1 e0       	ldi	r29, 0x01	; 1
     2d8:	00 e0       	ldi	r16, 0x00	; 0
     2da:	06 c0       	rjmp	.+12     	; 0x2e8 <__do_global_ctors+0x16>
     2dc:	21 97       	sbiw	r28, 0x01	; 1
     2de:	01 09       	sbc	r16, r1
     2e0:	80 2f       	mov	r24, r16
     2e2:	fe 01       	movw	r30, r28
     2e4:	0e 94 18 14 	call	0x2830	; 0x2830 <__tablejump2__>
     2e8:	c4 34       	cpi	r28, 0x44	; 68
     2ea:	d1 07       	cpc	r29, r17
     2ec:	80 e0       	ldi	r24, 0x00	; 0
     2ee:	08 07       	cpc	r16, r24
     2f0:	a9 f7       	brne	.-22     	; 0x2dc <__do_global_ctors+0xa>
     2f2:	0e 94 09 0b 	call	0x1612	; 0x1612 <main>
     2f6:	0c 94 45 14 	jmp	0x288a	; 0x288a <_exit>

000002fa <__bad_interrupt>:
     2fa:	82 ce       	rjmp	.-764    	; 0x0 <__vectors>

000002fc <_ZN15Adafruit_Sensor15enableAutoRangeEb>:

    setMode(lastMode);
    return true;
  }
  return false;
}
     2fc:	08 95       	ret

000002fe <_ZN15Adafruit_BNO0559getSensorEP8sensor_t>:
     2fe:	0f 93       	push	r16
     300:	1f 93       	push	r17
     302:	cf 93       	push	r28
     304:	df 93       	push	r29
     306:	8c 01       	movw	r16, r24
     308:	eb 01       	movw	r28, r22
     30a:	88 e2       	ldi	r24, 0x28	; 40
     30c:	fb 01       	movw	r30, r22
     30e:	11 92       	st	Z+, r1
     310:	8a 95       	dec	r24
     312:	e9 f7       	brne	.-6      	; 0x30e <_ZN15Adafruit_BNO0559getSensorEP8sensor_t+0x10>
     314:	4b e0       	ldi	r20, 0x0B	; 11
     316:	50 e0       	ldi	r21, 0x00	; 0
     318:	64 e1       	ldi	r22, 0x14	; 20
     31a:	72 e0       	ldi	r23, 0x02	; 2
     31c:	ce 01       	movw	r24, r28
     31e:	0e 94 36 14 	call	0x286c	; 0x286c <strncpy>
     322:	1b 86       	std	Y+11, r1	; 0x0b
     324:	81 e0       	ldi	r24, 0x01	; 1
     326:	90 e0       	ldi	r25, 0x00	; 0
     328:	a0 e0       	ldi	r26, 0x00	; 0
     32a:	b0 e0       	ldi	r27, 0x00	; 0
     32c:	8c 87       	std	Y+12, r24	; 0x0c
     32e:	9d 87       	std	Y+13, r25	; 0x0d
     330:	ae 87       	std	Y+14, r26	; 0x0e
     332:	bf 87       	std	Y+15, r27	; 0x0f
     334:	f8 01       	movw	r30, r16
     336:	86 81       	ldd	r24, Z+6	; 0x06
     338:	97 81       	ldd	r25, Z+7	; 0x07
     33a:	a0 85       	ldd	r26, Z+8	; 0x08
     33c:	b1 85       	ldd	r27, Z+9	; 0x09
     33e:	88 8b       	std	Y+16, r24	; 0x10
     340:	99 8b       	std	Y+17, r25	; 0x11
     342:	aa 8b       	std	Y+18, r26	; 0x12
     344:	bb 8b       	std	Y+19, r27	; 0x13
     346:	83 e0       	ldi	r24, 0x03	; 3
     348:	90 e0       	ldi	r25, 0x00	; 0
     34a:	a0 e0       	ldi	r26, 0x00	; 0
     34c:	b0 e0       	ldi	r27, 0x00	; 0
     34e:	8c 8b       	std	Y+20, r24	; 0x14
     350:	9d 8b       	std	Y+21, r25	; 0x15
     352:	ae 8b       	std	Y+22, r26	; 0x16
     354:	bf 8b       	std	Y+23, r27	; 0x17
     356:	1c a2       	std	Y+36, r1	; 0x24
     358:	1d a2       	std	Y+37, r1	; 0x25
     35a:	1e a2       	std	Y+38, r1	; 0x26
     35c:	1f a2       	std	Y+39, r1	; 0x27
     35e:	18 8e       	std	Y+24, r1	; 0x18
     360:	19 8e       	std	Y+25, r1	; 0x19
     362:	1a 8e       	std	Y+26, r1	; 0x1a
     364:	1b 8e       	std	Y+27, r1	; 0x1b
     366:	1c 8e       	std	Y+28, r1	; 0x1c
     368:	1d 8e       	std	Y+29, r1	; 0x1d
     36a:	1e 8e       	std	Y+30, r1	; 0x1e
     36c:	1f 8e       	std	Y+31, r1	; 0x1f
     36e:	8a e0       	ldi	r24, 0x0A	; 10
     370:	97 ed       	ldi	r25, 0xD7	; 215
     372:	a3 e2       	ldi	r26, 0x23	; 35
     374:	bc e3       	ldi	r27, 0x3C	; 60
     376:	88 a3       	std	Y+32, r24	; 0x20
     378:	99 a3       	std	Y+33, r25	; 0x21
     37a:	aa a3       	std	Y+34, r26	; 0x22
     37c:	bb a3       	std	Y+35, r27	; 0x23
     37e:	df 91       	pop	r29
     380:	cf 91       	pop	r28
     382:	1f 91       	pop	r17
     384:	0f 91       	pop	r16
     386:	08 95       	ret

00000388 <_ZN15Adafruit_BNO055C1ElhP7TwoWire>:
     388:	0f 93       	push	r16
     38a:	1f 93       	push	r17
     38c:	fc 01       	movw	r30, r24
     38e:	8f e1       	ldi	r24, 0x1F	; 31
     390:	92 e0       	ldi	r25, 0x02	; 2
     392:	91 83       	std	Z+1, r25	; 0x01
     394:	80 83       	st	Z, r24
     396:	46 83       	std	Z+6, r20	; 0x06
     398:	57 83       	std	Z+7, r21	; 0x07
     39a:	60 87       	std	Z+8, r22	; 0x08
     39c:	71 87       	std	Z+9, r23	; 0x09
     39e:	23 83       	std	Z+3, r18	; 0x03
     3a0:	15 83       	std	Z+5, r17	; 0x05
     3a2:	04 83       	std	Z+4, r16	; 0x04
     3a4:	1f 91       	pop	r17
     3a6:	0f 91       	pop	r16
     3a8:	08 95       	ret

000003aa <_ZN15Adafruit_BNO0557readLenENS_21adafruit_bno055_reg_tEPhh>:
     3aa:	cf 92       	push	r12
     3ac:	df 92       	push	r13
     3ae:	ef 92       	push	r14
     3b0:	ff 92       	push	r15
     3b2:	0f 93       	push	r16
     3b4:	1f 93       	push	r17
     3b6:	cf 93       	push	r28
     3b8:	df 93       	push	r29
     3ba:	7c 01       	movw	r14, r24
     3bc:	c6 2f       	mov	r28, r22
     3be:	6a 01       	movw	r12, r20
     3c0:	12 2f       	mov	r17, r18
     3c2:	dc 01       	movw	r26, r24
     3c4:	13 96       	adiw	r26, 0x03	; 3
     3c6:	6c 91       	ld	r22, X
     3c8:	13 97       	sbiw	r26, 0x03	; 3
     3ca:	14 96       	adiw	r26, 0x04	; 4
     3cc:	8d 91       	ld	r24, X+
     3ce:	9c 91       	ld	r25, X
     3d0:	15 97       	sbiw	r26, 0x05	; 5
     3d2:	0e 94 37 11 	call	0x226e	; 0x226e <_ZN7TwoWire17beginTransmissionEh>
     3d6:	f7 01       	movw	r30, r14
     3d8:	84 81       	ldd	r24, Z+4	; 0x04
     3da:	95 81       	ldd	r25, Z+5	; 0x05
     3dc:	dc 01       	movw	r26, r24
     3de:	ed 91       	ld	r30, X+
     3e0:	fc 91       	ld	r31, X
     3e2:	01 90       	ld	r0, Z+
     3e4:	f0 81       	ld	r31, Z
     3e6:	e0 2d       	mov	r30, r0
     3e8:	6c 2f       	mov	r22, r28
     3ea:	19 95       	eicall
     3ec:	f7 01       	movw	r30, r14
     3ee:	84 81       	ldd	r24, Z+4	; 0x04
     3f0:	95 81       	ldd	r25, Z+5	; 0x05
     3f2:	0e 94 bb 11 	call	0x2376	; 0x2376 <_ZN7TwoWire15endTransmissionEv>
     3f6:	41 2f       	mov	r20, r17
     3f8:	d7 01       	movw	r26, r14
     3fa:	13 96       	adiw	r26, 0x03	; 3
     3fc:	6c 91       	ld	r22, X
     3fe:	13 97       	sbiw	r26, 0x03	; 3
     400:	14 96       	adiw	r26, 0x04	; 4
     402:	8d 91       	ld	r24, X+
     404:	9c 91       	ld	r25, X
     406:	15 97       	sbiw	r26, 0x05	; 5
     408:	0e 94 b8 11 	call	0x2370	; 0x2370 <_ZN7TwoWire11requestFromEhh>
     40c:	11 23       	and	r17, r17
     40e:	b1 f0       	breq	.+44     	; 0x43c <__LOCK_REGION_LENGTH__+0x3c>
     410:	e6 01       	movw	r28, r12
     412:	11 50       	subi	r17, 0x01	; 1
     414:	01 2f       	mov	r16, r17
     416:	10 e0       	ldi	r17, 0x00	; 0
     418:	0f 5f       	subi	r16, 0xFF	; 255
     41a:	1f 4f       	sbci	r17, 0xFF	; 255
     41c:	0c 0d       	add	r16, r12
     41e:	1d 1d       	adc	r17, r13
     420:	f7 01       	movw	r30, r14
     422:	84 81       	ldd	r24, Z+4	; 0x04
     424:	95 81       	ldd	r25, Z+5	; 0x05
     426:	dc 01       	movw	r26, r24
     428:	ed 91       	ld	r30, X+
     42a:	fc 91       	ld	r31, X
     42c:	02 84       	ldd	r0, Z+10	; 0x0a
     42e:	f3 85       	ldd	r31, Z+11	; 0x0b
     430:	e0 2d       	mov	r30, r0
     432:	19 95       	eicall
     434:	89 93       	st	Y+, r24
     436:	c0 17       	cp	r28, r16
     438:	d1 07       	cpc	r29, r17
     43a:	91 f7       	brne	.-28     	; 0x420 <__LOCK_REGION_LENGTH__+0x20>
     43c:	81 e0       	ldi	r24, 0x01	; 1
     43e:	df 91       	pop	r29
     440:	cf 91       	pop	r28
     442:	1f 91       	pop	r17
     444:	0f 91       	pop	r16
     446:	ff 90       	pop	r15
     448:	ef 90       	pop	r14
     44a:	df 90       	pop	r13
     44c:	cf 90       	pop	r12
     44e:	08 95       	ret

00000450 <_ZN15Adafruit_BNO0559getVectorENS_22adafruit_vector_type_tE>:
 *            VECTOR_EULER
 *            VECTOR_LINEARACCEL
 *            VECTOR_GRAVITY]
 *  @return  vector from specified source
 */
imu::Vector<3> Adafruit_BNO055::getVector(adafruit_vector_type_t vector_type) {
     450:	af 92       	push	r10
     452:	bf 92       	push	r11
     454:	cf 92       	push	r12
     456:	df 92       	push	r13
     458:	ff 92       	push	r15
     45a:	0f 93       	push	r16
     45c:	1f 93       	push	r17
     45e:	cf 93       	push	r28
     460:	df 93       	push	r29
     462:	00 d0       	rcall	.+0      	; 0x464 <_ZN15Adafruit_BNO0559getVectorENS_22adafruit_vector_type_tE+0x14>
     464:	00 d0       	rcall	.+0      	; 0x466 <_ZN15Adafruit_BNO0559getVectorENS_22adafruit_vector_type_tE+0x16>
     466:	cd b7       	in	r28, 0x3d	; 61
     468:	de b7       	in	r29, 0x3e	; 62
     46a:	8c 01       	movw	r16, r24
     46c:	cb 01       	movw	r24, r22
     46e:	f4 2e       	mov	r15, r20
	template <uint8_t N> class Vector
	{
		public:
		Vector()
		{
			memset(p_vec, 0, sizeof(double)*N);
     470:	2c e0       	ldi	r18, 0x0C	; 12
     472:	f8 01       	movw	r30, r16
     474:	11 92       	st	Z+, r1
     476:	2a 95       	dec	r18
     478:	e9 f7       	brne	.-6      	; 0x474 <_ZN15Adafruit_BNO0559getVectorENS_22adafruit_vector_type_tE+0x24>
  imu::Vector<3> xyz;
  uint8_t buffer[6];
  memset(buffer, 0, 6);
     47a:	ae 01       	movw	r20, r28
     47c:	4f 5f       	subi	r20, 0xFF	; 255
     47e:	5f 4f       	sbci	r21, 0xFF	; 255
     480:	26 e0       	ldi	r18, 0x06	; 6
     482:	fa 01       	movw	r30, r20
     484:	11 92       	st	Z+, r1
     486:	2a 95       	dec	r18
     488:	e9 f7       	brne	.-6      	; 0x484 <_ZN15Adafruit_BNO0559getVectorENS_22adafruit_vector_type_tE+0x34>

  int16_t x, y, z;
  x = y = z = 0;

  /* Read vector data (6 bytes) */
  readLen((adafruit_bno055_reg_t)vector_type, buffer, 6);
     48a:	26 e0       	ldi	r18, 0x06	; 6
     48c:	6f 2d       	mov	r22, r15
     48e:	8d df       	rcall	.-230    	; 0x3aa <_ZN15Adafruit_BNO0557readLenENS_21adafruit_bno055_reg_tEPhh>

  x = ((int16_t)buffer[0]) | (((int16_t)buffer[1]) << 8);
     490:	6a 81       	ldd	r22, Y+2	; 0x02
     492:	70 e0       	ldi	r23, 0x00	; 0
     494:	76 2f       	mov	r23, r22
     496:	66 27       	eor	r22, r22
     498:	89 81       	ldd	r24, Y+1	; 0x01
     49a:	68 2b       	or	r22, r24
  y = ((int16_t)buffer[2]) | (((int16_t)buffer[3]) << 8);
     49c:	8c 81       	ldd	r24, Y+4	; 0x04
     49e:	90 e0       	ldi	r25, 0x00	; 0
     4a0:	98 2f       	mov	r25, r24
     4a2:	88 27       	eor	r24, r24
     4a4:	2b 81       	ldd	r18, Y+3	; 0x03
     4a6:	6c 01       	movw	r12, r24
     4a8:	c2 2a       	or	r12, r18
  z = ((int16_t)buffer[4]) | (((int16_t)buffer[5]) << 8);
     4aa:	8e 81       	ldd	r24, Y+6	; 0x06
     4ac:	90 e0       	ldi	r25, 0x00	; 0
     4ae:	98 2f       	mov	r25, r24
     4b0:	88 27       	eor	r24, r24
     4b2:	2d 81       	ldd	r18, Y+5	; 0x05
     4b4:	5c 01       	movw	r10, r24
     4b6:	a2 2a       	or	r10, r18

  /*!
   * Convert the value to an appropriate range (section 3.6.4)
   * and assign the value to the Vector type
   */
  switch (vector_type) {
     4b8:	f4 e1       	ldi	r31, 0x14	; 20
     4ba:	ff 16       	cp	r15, r31
     4bc:	09 f4       	brne	.+2      	; 0x4c0 <_ZN15Adafruit_BNO0559getVectorENS_22adafruit_vector_type_tE+0x70>
     4be:	4a c0       	rjmp	.+148    	; 0x554 <_ZN15Adafruit_BNO0559getVectorENS_22adafruit_vector_type_tE+0x104>
     4c0:	ff 15       	cp	r31, r15
     4c2:	40 f0       	brcs	.+16     	; 0x4d4 <_ZN15Adafruit_BNO0559getVectorENS_22adafruit_vector_type_tE+0x84>
     4c4:	88 e0       	ldi	r24, 0x08	; 8
     4c6:	f8 16       	cp	r15, r24
     4c8:	09 f4       	brne	.+2      	; 0x4cc <_ZN15Adafruit_BNO0559getVectorENS_22adafruit_vector_type_tE+0x7c>
     4ca:	ac c0       	rjmp	.+344    	; 0x624 <_ZN15Adafruit_BNO0559getVectorENS_22adafruit_vector_type_tE+0x1d4>
     4cc:	ee e0       	ldi	r30, 0x0E	; 14
     4ce:	fe 16       	cp	r15, r30
     4d0:	69 f0       	breq	.+26     	; 0x4ec <_ZN15Adafruit_BNO0559getVectorENS_22adafruit_vector_type_tE+0x9c>
     4d2:	43 c1       	rjmp	.+646    	; 0x75a <_ZN15Adafruit_BNO0559getVectorENS_22adafruit_vector_type_tE+0x30a>
     4d4:	f8 e2       	ldi	r31, 0x28	; 40
     4d6:	ff 16       	cp	r15, r31
     4d8:	09 f4       	brne	.+2      	; 0x4dc <_ZN15Adafruit_BNO0559getVectorENS_22adafruit_vector_type_tE+0x8c>
     4da:	d8 c0       	rjmp	.+432    	; 0x68c <_ZN15Adafruit_BNO0559getVectorENS_22adafruit_vector_type_tE+0x23c>
     4dc:	8e e2       	ldi	r24, 0x2E	; 46
     4de:	f8 16       	cp	r15, r24
     4e0:	09 f4       	brne	.+2      	; 0x4e4 <_ZN15Adafruit_BNO0559getVectorENS_22adafruit_vector_type_tE+0x94>
     4e2:	08 c1       	rjmp	.+528    	; 0x6f4 <_ZN15Adafruit_BNO0559getVectorENS_22adafruit_vector_type_tE+0x2a4>
     4e4:	ea e1       	ldi	r30, 0x1A	; 26
     4e6:	fe 12       	cpse	r15, r30
     4e8:	38 c1       	rjmp	.+624    	; 0x75a <_ZN15Adafruit_BNO0559getVectorENS_22adafruit_vector_type_tE+0x30a>
     4ea:	68 c0       	rjmp	.+208    	; 0x5bc <_ZN15Adafruit_BNO0559getVectorENS_22adafruit_vector_type_tE+0x16c>
  case VECTOR_MAGNETOMETER:
    /* 1uT = 16 LSB */
    xyz[0] = ((double)x) / 16.0;
     4ec:	07 2e       	mov	r0, r23
     4ee:	00 0c       	add	r0, r0
     4f0:	88 0b       	sbc	r24, r24
     4f2:	99 0b       	sbc	r25, r25
     4f4:	0e 94 07 13 	call	0x260e	; 0x260e <__floatsisf>
     4f8:	20 e0       	ldi	r18, 0x00	; 0
     4fa:	30 e0       	ldi	r19, 0x00	; 0
     4fc:	40 e8       	ldi	r20, 0x80	; 128
     4fe:	5d e3       	ldi	r21, 0x3D	; 61
     500:	0e 94 93 13 	call	0x2726	; 0x2726 <__mulsf3>
     504:	f8 01       	movw	r30, r16
     506:	60 83       	st	Z, r22
     508:	71 83       	std	Z+1, r23	; 0x01
     50a:	82 83       	std	Z+2, r24	; 0x02
     50c:	93 83       	std	Z+3, r25	; 0x03
    xyz[1] = ((double)y) / 16.0;
     50e:	b6 01       	movw	r22, r12
     510:	dd 0c       	add	r13, r13
     512:	88 0b       	sbc	r24, r24
     514:	99 0b       	sbc	r25, r25
     516:	0e 94 07 13 	call	0x260e	; 0x260e <__floatsisf>
     51a:	20 e0       	ldi	r18, 0x00	; 0
     51c:	30 e0       	ldi	r19, 0x00	; 0
     51e:	40 e8       	ldi	r20, 0x80	; 128
     520:	5d e3       	ldi	r21, 0x3D	; 61
     522:	0e 94 93 13 	call	0x2726	; 0x2726 <__mulsf3>
     526:	f8 01       	movw	r30, r16
     528:	64 83       	std	Z+4, r22	; 0x04
     52a:	75 83       	std	Z+5, r23	; 0x05
     52c:	86 83       	std	Z+6, r24	; 0x06
     52e:	97 83       	std	Z+7, r25	; 0x07
    xyz[2] = ((double)z) / 16.0;
     530:	b5 01       	movw	r22, r10
     532:	bb 0c       	add	r11, r11
     534:	88 0b       	sbc	r24, r24
     536:	99 0b       	sbc	r25, r25
     538:	0e 94 07 13 	call	0x260e	; 0x260e <__floatsisf>
     53c:	20 e0       	ldi	r18, 0x00	; 0
     53e:	30 e0       	ldi	r19, 0x00	; 0
     540:	40 e8       	ldi	r20, 0x80	; 128
     542:	5d e3       	ldi	r21, 0x3D	; 61
     544:	0e 94 93 13 	call	0x2726	; 0x2726 <__mulsf3>
     548:	f8 01       	movw	r30, r16
     54a:	60 87       	std	Z+8, r22	; 0x08
     54c:	71 87       	std	Z+9, r23	; 0x09
     54e:	82 87       	std	Z+10, r24	; 0x0a
     550:	93 87       	std	Z+11, r25	; 0x0b
    break;
     552:	03 c1       	rjmp	.+518    	; 0x75a <_ZN15Adafruit_BNO0559getVectorENS_22adafruit_vector_type_tE+0x30a>
  case VECTOR_GYROSCOPE:
    /* 1dps = 16 LSB */
    xyz[0] = ((double)x) / 16.0;
     554:	07 2e       	mov	r0, r23
     556:	00 0c       	add	r0, r0
     558:	88 0b       	sbc	r24, r24
     55a:	99 0b       	sbc	r25, r25
     55c:	0e 94 07 13 	call	0x260e	; 0x260e <__floatsisf>
     560:	20 e0       	ldi	r18, 0x00	; 0
     562:	30 e0       	ldi	r19, 0x00	; 0
     564:	40 e8       	ldi	r20, 0x80	; 128
     566:	5d e3       	ldi	r21, 0x3D	; 61
     568:	0e 94 93 13 	call	0x2726	; 0x2726 <__mulsf3>
     56c:	f8 01       	movw	r30, r16
     56e:	60 83       	st	Z, r22
     570:	71 83       	std	Z+1, r23	; 0x01
     572:	82 83       	std	Z+2, r24	; 0x02
     574:	93 83       	std	Z+3, r25	; 0x03
    xyz[1] = ((double)y) / 16.0;
     576:	b6 01       	movw	r22, r12
     578:	dd 0c       	add	r13, r13
     57a:	88 0b       	sbc	r24, r24
     57c:	99 0b       	sbc	r25, r25
     57e:	0e 94 07 13 	call	0x260e	; 0x260e <__floatsisf>
     582:	20 e0       	ldi	r18, 0x00	; 0
     584:	30 e0       	ldi	r19, 0x00	; 0
     586:	40 e8       	ldi	r20, 0x80	; 128
     588:	5d e3       	ldi	r21, 0x3D	; 61
     58a:	0e 94 93 13 	call	0x2726	; 0x2726 <__mulsf3>
     58e:	f8 01       	movw	r30, r16
     590:	64 83       	std	Z+4, r22	; 0x04
     592:	75 83       	std	Z+5, r23	; 0x05
     594:	86 83       	std	Z+6, r24	; 0x06
     596:	97 83       	std	Z+7, r25	; 0x07
    xyz[2] = ((double)z) / 16.0;
     598:	b5 01       	movw	r22, r10
     59a:	bb 0c       	add	r11, r11
     59c:	88 0b       	sbc	r24, r24
     59e:	99 0b       	sbc	r25, r25
     5a0:	0e 94 07 13 	call	0x260e	; 0x260e <__floatsisf>
     5a4:	20 e0       	ldi	r18, 0x00	; 0
     5a6:	30 e0       	ldi	r19, 0x00	; 0
     5a8:	40 e8       	ldi	r20, 0x80	; 128
     5aa:	5d e3       	ldi	r21, 0x3D	; 61
     5ac:	0e 94 93 13 	call	0x2726	; 0x2726 <__mulsf3>
     5b0:	f8 01       	movw	r30, r16
     5b2:	60 87       	std	Z+8, r22	; 0x08
     5b4:	71 87       	std	Z+9, r23	; 0x09
     5b6:	82 87       	std	Z+10, r24	; 0x0a
     5b8:	93 87       	std	Z+11, r25	; 0x0b
    break;
     5ba:	cf c0       	rjmp	.+414    	; 0x75a <_ZN15Adafruit_BNO0559getVectorENS_22adafruit_vector_type_tE+0x30a>
  case VECTOR_EULER:
    /* 1 degree = 16 LSB */
    xyz[0] = ((double)x) / 16.0;
     5bc:	07 2e       	mov	r0, r23
     5be:	00 0c       	add	r0, r0
     5c0:	88 0b       	sbc	r24, r24
     5c2:	99 0b       	sbc	r25, r25
     5c4:	0e 94 07 13 	call	0x260e	; 0x260e <__floatsisf>
     5c8:	20 e0       	ldi	r18, 0x00	; 0
     5ca:	30 e0       	ldi	r19, 0x00	; 0
     5cc:	40 e8       	ldi	r20, 0x80	; 128
     5ce:	5d e3       	ldi	r21, 0x3D	; 61
     5d0:	0e 94 93 13 	call	0x2726	; 0x2726 <__mulsf3>
     5d4:	f8 01       	movw	r30, r16
     5d6:	60 83       	st	Z, r22
     5d8:	71 83       	std	Z+1, r23	; 0x01
     5da:	82 83       	std	Z+2, r24	; 0x02
     5dc:	93 83       	std	Z+3, r25	; 0x03
    xyz[1] = ((double)y) / 16.0;
     5de:	b6 01       	movw	r22, r12
     5e0:	dd 0c       	add	r13, r13
     5e2:	88 0b       	sbc	r24, r24
     5e4:	99 0b       	sbc	r25, r25
     5e6:	0e 94 07 13 	call	0x260e	; 0x260e <__floatsisf>
     5ea:	20 e0       	ldi	r18, 0x00	; 0
     5ec:	30 e0       	ldi	r19, 0x00	; 0
     5ee:	40 e8       	ldi	r20, 0x80	; 128
     5f0:	5d e3       	ldi	r21, 0x3D	; 61
     5f2:	0e 94 93 13 	call	0x2726	; 0x2726 <__mulsf3>
     5f6:	f8 01       	movw	r30, r16
     5f8:	64 83       	std	Z+4, r22	; 0x04
     5fa:	75 83       	std	Z+5, r23	; 0x05
     5fc:	86 83       	std	Z+6, r24	; 0x06
     5fe:	97 83       	std	Z+7, r25	; 0x07
    xyz[2] = ((double)z) / 16.0;
     600:	b5 01       	movw	r22, r10
     602:	bb 0c       	add	r11, r11
     604:	88 0b       	sbc	r24, r24
     606:	99 0b       	sbc	r25, r25
     608:	0e 94 07 13 	call	0x260e	; 0x260e <__floatsisf>
     60c:	20 e0       	ldi	r18, 0x00	; 0
     60e:	30 e0       	ldi	r19, 0x00	; 0
     610:	40 e8       	ldi	r20, 0x80	; 128
     612:	5d e3       	ldi	r21, 0x3D	; 61
     614:	0e 94 93 13 	call	0x2726	; 0x2726 <__mulsf3>
     618:	f8 01       	movw	r30, r16
     61a:	60 87       	std	Z+8, r22	; 0x08
     61c:	71 87       	std	Z+9, r23	; 0x09
     61e:	82 87       	std	Z+10, r24	; 0x0a
     620:	93 87       	std	Z+11, r25	; 0x0b
    break;
     622:	9b c0       	rjmp	.+310    	; 0x75a <_ZN15Adafruit_BNO0559getVectorENS_22adafruit_vector_type_tE+0x30a>
  case VECTOR_ACCELEROMETER:
    /* 1m/s^2 = 100 LSB */
    xyz[0] = ((double)x) / 100.0;
     624:	07 2e       	mov	r0, r23
     626:	00 0c       	add	r0, r0
     628:	88 0b       	sbc	r24, r24
     62a:	99 0b       	sbc	r25, r25
     62c:	0e 94 07 13 	call	0x260e	; 0x260e <__floatsisf>
     630:	20 e0       	ldi	r18, 0x00	; 0
     632:	30 e0       	ldi	r19, 0x00	; 0
     634:	48 ec       	ldi	r20, 0xC8	; 200
     636:	52 e4       	ldi	r21, 0x42	; 66
     638:	0e 94 9d 12 	call	0x253a	; 0x253a <__divsf3>
     63c:	f8 01       	movw	r30, r16
     63e:	60 83       	st	Z, r22
     640:	71 83       	std	Z+1, r23	; 0x01
     642:	82 83       	std	Z+2, r24	; 0x02
     644:	93 83       	std	Z+3, r25	; 0x03
    xyz[1] = ((double)y) / 100.0;
     646:	b6 01       	movw	r22, r12
     648:	dd 0c       	add	r13, r13
     64a:	88 0b       	sbc	r24, r24
     64c:	99 0b       	sbc	r25, r25
     64e:	0e 94 07 13 	call	0x260e	; 0x260e <__floatsisf>
     652:	20 e0       	ldi	r18, 0x00	; 0
     654:	30 e0       	ldi	r19, 0x00	; 0
     656:	48 ec       	ldi	r20, 0xC8	; 200
     658:	52 e4       	ldi	r21, 0x42	; 66
     65a:	0e 94 9d 12 	call	0x253a	; 0x253a <__divsf3>
     65e:	f8 01       	movw	r30, r16
     660:	64 83       	std	Z+4, r22	; 0x04
     662:	75 83       	std	Z+5, r23	; 0x05
     664:	86 83       	std	Z+6, r24	; 0x06
     666:	97 83       	std	Z+7, r25	; 0x07
    xyz[2] = ((double)z) / 100.0;
     668:	b5 01       	movw	r22, r10
     66a:	bb 0c       	add	r11, r11
     66c:	88 0b       	sbc	r24, r24
     66e:	99 0b       	sbc	r25, r25
     670:	0e 94 07 13 	call	0x260e	; 0x260e <__floatsisf>
     674:	20 e0       	ldi	r18, 0x00	; 0
     676:	30 e0       	ldi	r19, 0x00	; 0
     678:	48 ec       	ldi	r20, 0xC8	; 200
     67a:	52 e4       	ldi	r21, 0x42	; 66
     67c:	0e 94 9d 12 	call	0x253a	; 0x253a <__divsf3>
     680:	f8 01       	movw	r30, r16
     682:	60 87       	std	Z+8, r22	; 0x08
     684:	71 87       	std	Z+9, r23	; 0x09
     686:	82 87       	std	Z+10, r24	; 0x0a
     688:	93 87       	std	Z+11, r25	; 0x0b
    break;
     68a:	67 c0       	rjmp	.+206    	; 0x75a <_ZN15Adafruit_BNO0559getVectorENS_22adafruit_vector_type_tE+0x30a>
  case VECTOR_LINEARACCEL:
    /* 1m/s^2 = 100 LSB */
    xyz[0] = ((double)x) / 100.0;
     68c:	07 2e       	mov	r0, r23
     68e:	00 0c       	add	r0, r0
     690:	88 0b       	sbc	r24, r24
     692:	99 0b       	sbc	r25, r25
     694:	0e 94 07 13 	call	0x260e	; 0x260e <__floatsisf>
     698:	20 e0       	ldi	r18, 0x00	; 0
     69a:	30 e0       	ldi	r19, 0x00	; 0
     69c:	48 ec       	ldi	r20, 0xC8	; 200
     69e:	52 e4       	ldi	r21, 0x42	; 66
     6a0:	0e 94 9d 12 	call	0x253a	; 0x253a <__divsf3>
     6a4:	f8 01       	movw	r30, r16
     6a6:	60 83       	st	Z, r22
     6a8:	71 83       	std	Z+1, r23	; 0x01
     6aa:	82 83       	std	Z+2, r24	; 0x02
     6ac:	93 83       	std	Z+3, r25	; 0x03
    xyz[1] = ((double)y) / 100.0;
     6ae:	b6 01       	movw	r22, r12
     6b0:	dd 0c       	add	r13, r13
     6b2:	88 0b       	sbc	r24, r24
     6b4:	99 0b       	sbc	r25, r25
     6b6:	0e 94 07 13 	call	0x260e	; 0x260e <__floatsisf>
     6ba:	20 e0       	ldi	r18, 0x00	; 0
     6bc:	30 e0       	ldi	r19, 0x00	; 0
     6be:	48 ec       	ldi	r20, 0xC8	; 200
     6c0:	52 e4       	ldi	r21, 0x42	; 66
     6c2:	0e 94 9d 12 	call	0x253a	; 0x253a <__divsf3>
     6c6:	f8 01       	movw	r30, r16
     6c8:	64 83       	std	Z+4, r22	; 0x04
     6ca:	75 83       	std	Z+5, r23	; 0x05
     6cc:	86 83       	std	Z+6, r24	; 0x06
     6ce:	97 83       	std	Z+7, r25	; 0x07
    xyz[2] = ((double)z) / 100.0;
     6d0:	b5 01       	movw	r22, r10
     6d2:	bb 0c       	add	r11, r11
     6d4:	88 0b       	sbc	r24, r24
     6d6:	99 0b       	sbc	r25, r25
     6d8:	0e 94 07 13 	call	0x260e	; 0x260e <__floatsisf>
     6dc:	20 e0       	ldi	r18, 0x00	; 0
     6de:	30 e0       	ldi	r19, 0x00	; 0
     6e0:	48 ec       	ldi	r20, 0xC8	; 200
     6e2:	52 e4       	ldi	r21, 0x42	; 66
     6e4:	0e 94 9d 12 	call	0x253a	; 0x253a <__divsf3>
     6e8:	f8 01       	movw	r30, r16
     6ea:	60 87       	std	Z+8, r22	; 0x08
     6ec:	71 87       	std	Z+9, r23	; 0x09
     6ee:	82 87       	std	Z+10, r24	; 0x0a
     6f0:	93 87       	std	Z+11, r25	; 0x0b
    break;
     6f2:	33 c0       	rjmp	.+102    	; 0x75a <_ZN15Adafruit_BNO0559getVectorENS_22adafruit_vector_type_tE+0x30a>
  case VECTOR_GRAVITY:
    /* 1m/s^2 = 100 LSB */
    xyz[0] = ((double)x) / 100.0;
     6f4:	07 2e       	mov	r0, r23
     6f6:	00 0c       	add	r0, r0
     6f8:	88 0b       	sbc	r24, r24
     6fa:	99 0b       	sbc	r25, r25
     6fc:	0e 94 07 13 	call	0x260e	; 0x260e <__floatsisf>
     700:	20 e0       	ldi	r18, 0x00	; 0
     702:	30 e0       	ldi	r19, 0x00	; 0
     704:	48 ec       	ldi	r20, 0xC8	; 200
     706:	52 e4       	ldi	r21, 0x42	; 66
     708:	0e 94 9d 12 	call	0x253a	; 0x253a <__divsf3>
     70c:	f8 01       	movw	r30, r16
     70e:	60 83       	st	Z, r22
     710:	71 83       	std	Z+1, r23	; 0x01
     712:	82 83       	std	Z+2, r24	; 0x02
     714:	93 83       	std	Z+3, r25	; 0x03
    xyz[1] = ((double)y) / 100.0;
     716:	b6 01       	movw	r22, r12
     718:	dd 0c       	add	r13, r13
     71a:	88 0b       	sbc	r24, r24
     71c:	99 0b       	sbc	r25, r25
     71e:	0e 94 07 13 	call	0x260e	; 0x260e <__floatsisf>
     722:	20 e0       	ldi	r18, 0x00	; 0
     724:	30 e0       	ldi	r19, 0x00	; 0
     726:	48 ec       	ldi	r20, 0xC8	; 200
     728:	52 e4       	ldi	r21, 0x42	; 66
     72a:	0e 94 9d 12 	call	0x253a	; 0x253a <__divsf3>
     72e:	f8 01       	movw	r30, r16
     730:	64 83       	std	Z+4, r22	; 0x04
     732:	75 83       	std	Z+5, r23	; 0x05
     734:	86 83       	std	Z+6, r24	; 0x06
     736:	97 83       	std	Z+7, r25	; 0x07
    xyz[2] = ((double)z) / 100.0;
     738:	b5 01       	movw	r22, r10
     73a:	bb 0c       	add	r11, r11
     73c:	88 0b       	sbc	r24, r24
     73e:	99 0b       	sbc	r25, r25
     740:	0e 94 07 13 	call	0x260e	; 0x260e <__floatsisf>
     744:	20 e0       	ldi	r18, 0x00	; 0
     746:	30 e0       	ldi	r19, 0x00	; 0
     748:	48 ec       	ldi	r20, 0xC8	; 200
     74a:	52 e4       	ldi	r21, 0x42	; 66
     74c:	0e 94 9d 12 	call	0x253a	; 0x253a <__divsf3>
     750:	f8 01       	movw	r30, r16
     752:	60 87       	std	Z+8, r22	; 0x08
     754:	71 87       	std	Z+9, r23	; 0x09
     756:	82 87       	std	Z+10, r24	; 0x0a
     758:	93 87       	std	Z+11, r25	; 0x0b
    break;
  }

  return xyz;
}
     75a:	c8 01       	movw	r24, r16
     75c:	26 96       	adiw	r28, 0x06	; 6
     75e:	0f b6       	in	r0, 0x3f	; 63
     760:	f8 94       	cli
     762:	de bf       	out	0x3e, r29	; 62
     764:	0f be       	out	0x3f, r0	; 63
     766:	cd bf       	out	0x3d, r28	; 61
     768:	df 91       	pop	r29
     76a:	cf 91       	pop	r28
     76c:	1f 91       	pop	r17
     76e:	0f 91       	pop	r16
     770:	ff 90       	pop	r15
     772:	df 90       	pop	r13
     774:	cf 90       	pop	r12
     776:	bf 90       	pop	r11
     778:	af 90       	pop	r10
     77a:	08 95       	ret

0000077c <_ZN15Adafruit_BNO0558getEventEP15sensors_event_t>:
/*!
 *  @brief  Reads the sensor and returns the data as a sensors_event_t
 *  @param  event
 *  @return always returns true
 */
bool Adafruit_BNO055::getEvent(sensors_event_t *event) {
     77c:	0f 93       	push	r16
     77e:	1f 93       	push	r17
     780:	cf 93       	push	r28
     782:	df 93       	push	r29
     784:	cd b7       	in	r28, 0x3d	; 61
     786:	de b7       	in	r29, 0x3e	; 62
     788:	2c 97       	sbiw	r28, 0x0c	; 12
     78a:	0f b6       	in	r0, 0x3f	; 63
     78c:	f8 94       	cli
     78e:	de bf       	out	0x3e, r29	; 62
     790:	0f be       	out	0x3f, r0	; 63
     792:	cd bf       	out	0x3d, r28	; 61
     794:	8b 01       	movw	r16, r22
  /* Clear the event */
  memset(event, 0, sizeof(sensors_event_t));
     796:	20 e2       	ldi	r18, 0x20	; 32
     798:	fb 01       	movw	r30, r22
     79a:	11 92       	st	Z+, r1
     79c:	2a 95       	dec	r18
     79e:	e9 f7       	brne	.-6      	; 0x79a <_ZN15Adafruit_BNO0558getEventEP15sensors_event_t+0x1e>

  event->version = sizeof(sensors_event_t);
     7a0:	40 e2       	ldi	r20, 0x20	; 32
     7a2:	50 e0       	ldi	r21, 0x00	; 0
     7a4:	60 e0       	ldi	r22, 0x00	; 0
     7a6:	70 e0       	ldi	r23, 0x00	; 0
     7a8:	f8 01       	movw	r30, r16
     7aa:	40 83       	st	Z, r20
     7ac:	51 83       	std	Z+1, r21	; 0x01
     7ae:	62 83       	std	Z+2, r22	; 0x02
     7b0:	73 83       	std	Z+3, r23	; 0x03
  event->sensor_id = _sensorID;
     7b2:	fc 01       	movw	r30, r24
     7b4:	46 81       	ldd	r20, Z+6	; 0x06
     7b6:	57 81       	ldd	r21, Z+7	; 0x07
     7b8:	60 85       	ldd	r22, Z+8	; 0x08
     7ba:	71 85       	ldd	r23, Z+9	; 0x09
     7bc:	f8 01       	movw	r30, r16
     7be:	44 83       	std	Z+4, r20	; 0x04
     7c0:	55 83       	std	Z+5, r21	; 0x05
     7c2:	66 83       	std	Z+6, r22	; 0x06
     7c4:	77 83       	std	Z+7, r23	; 0x07
  event->type = SENSOR_TYPE_ORIENTATION;
     7c6:	43 e0       	ldi	r20, 0x03	; 3
     7c8:	50 e0       	ldi	r21, 0x00	; 0
     7ca:	60 e0       	ldi	r22, 0x00	; 0
     7cc:	70 e0       	ldi	r23, 0x00	; 0
     7ce:	40 87       	std	Z+8, r20	; 0x08
     7d0:	51 87       	std	Z+9, r21	; 0x09
     7d2:	62 87       	std	Z+10, r22	; 0x0a
     7d4:	73 87       	std	Z+11, r23	; 0x0b
  //event->timestamp = millis();

  /* Get a Euler angle sample for orientation */
  imu::Vector<3> euler = getVector(Adafruit_BNO055::VECTOR_EULER);
     7d6:	4a e1       	ldi	r20, 0x1A	; 26
     7d8:	bc 01       	movw	r22, r24
     7da:	ce 01       	movw	r24, r28
     7dc:	01 96       	adiw	r24, 0x01	; 1
     7de:	38 de       	rcall	.-912    	; 0x450 <_ZN15Adafruit_BNO0559getVectorENS_22adafruit_vector_type_tE>
  event->orientation.x = euler.x();
     7e0:	89 81       	ldd	r24, Y+1	; 0x01
     7e2:	9a 81       	ldd	r25, Y+2	; 0x02
     7e4:	ab 81       	ldd	r26, Y+3	; 0x03
     7e6:	bc 81       	ldd	r27, Y+4	; 0x04
     7e8:	f8 01       	movw	r30, r16
     7ea:	80 8b       	std	Z+16, r24	; 0x10
     7ec:	91 8b       	std	Z+17, r25	; 0x11
     7ee:	a2 8b       	std	Z+18, r26	; 0x12
     7f0:	b3 8b       	std	Z+19, r27	; 0x13
  event->orientation.y = euler.y();
     7f2:	8d 81       	ldd	r24, Y+5	; 0x05
     7f4:	9e 81       	ldd	r25, Y+6	; 0x06
     7f6:	af 81       	ldd	r26, Y+7	; 0x07
     7f8:	b8 85       	ldd	r27, Y+8	; 0x08
     7fa:	84 8b       	std	Z+20, r24	; 0x14
     7fc:	95 8b       	std	Z+21, r25	; 0x15
     7fe:	a6 8b       	std	Z+22, r26	; 0x16
     800:	b7 8b       	std	Z+23, r27	; 0x17
  event->orientation.z = euler.z();
     802:	89 85       	ldd	r24, Y+9	; 0x09
     804:	9a 85       	ldd	r25, Y+10	; 0x0a
     806:	ab 85       	ldd	r26, Y+11	; 0x0b
     808:	bc 85       	ldd	r27, Y+12	; 0x0c
     80a:	80 8f       	std	Z+24, r24	; 0x18
     80c:	91 8f       	std	Z+25, r25	; 0x19
     80e:	a2 8f       	std	Z+26, r26	; 0x1a
     810:	b3 8f       	std	Z+27, r27	; 0x1b

  return true;
}
     812:	81 e0       	ldi	r24, 0x01	; 1
     814:	2c 96       	adiw	r28, 0x0c	; 12
     816:	0f b6       	in	r0, 0x3f	; 63
     818:	f8 94       	cli
     81a:	de bf       	out	0x3e, r29	; 62
     81c:	0f be       	out	0x3f, r0	; 63
     81e:	cd bf       	out	0x3d, r28	; 61
     820:	df 91       	pop	r29
     822:	cf 91       	pop	r28
     824:	1f 91       	pop	r17
     826:	0f 91       	pop	r16
     828:	08 95       	ret

0000082a <_Z14RunPingCommandPKhh>:
#include <stddef.h>

uint8_t* const SendDataBuffer = (uint8_t*)(&EtherComm::buffer[2]);

void RunPingCommand(const uint8_t* data, uint8_t len){
  if(len == 1){
     82a:	61 30       	cpi	r22, 0x01	; 1
     82c:	49 f4       	brne	.+18     	; 0x840 <_Z14RunPingCommandPKhh+0x16>
     82e:	fc 01       	movw	r30, r24
    SendDataBuffer[0] = data[0];
     830:	80 81       	ld	r24, Z
     832:	e0 91 e8 02 	lds	r30, 0x02E8	; 0x8002e8 <__data_end>
     836:	f0 91 e9 02 	lds	r31, 0x02E9	; 0x8002e9 <__data_end+0x1>
     83a:	80 83       	st	Z, r24
    EtherComm::SendCommand(CMD_Ping, 1);
     83c:	80 e0       	ldi	r24, 0x00	; 0
     83e:	a7 c6       	rjmp	.+3406   	; 0x158e <_ZN9EtherComm11SendCommandEhh>
     840:	08 95       	ret

00000842 <_Z14RunEchoCommandPKhh>:
  }
}

void RunEchoCommand(const uint8_t* data, uint8_t len){
  uint8_t* index = SendDataBuffer;
     842:	40 91 e8 02 	lds	r20, 0x02E8	; 0x8002e8 <__data_end>
     846:	30 91 e9 02 	lds	r19, 0x02E9	; 0x8002e9 <__data_end+0x1>
  uint8_t dataLen = len;
  while(len-- > 0){
     84a:	2f ef       	ldi	r18, 0xFF	; 255
     84c:	26 0f       	add	r18, r22
     84e:	66 23       	and	r22, r22
     850:	41 f0       	breq	.+16     	; 0x862 <_Z14RunEchoCommandPKhh+0x20>
     852:	a8 2f       	mov	r26, r24
     854:	b9 2f       	mov	r27, r25
     856:	e4 2f       	mov	r30, r20
     858:	f3 2f       	mov	r31, r19
    *(index++) = *(data++);
     85a:	8d 91       	ld	r24, X+
     85c:	81 93       	st	Z+, r24
}

void RunEchoCommand(const uint8_t* data, uint8_t len){
  uint8_t* index = SendDataBuffer;
  uint8_t dataLen = len;
  while(len-- > 0){
     85e:	21 50       	subi	r18, 0x01	; 1
     860:	e0 f7       	brcc	.-8      	; 0x85a <_Z14RunEchoCommandPKhh+0x18>
    *(index++) = *(data++);
  }
  
  EtherComm::SendCommand(CMD_Echo, dataLen);
     862:	81 e0       	ldi	r24, 0x01	; 1
     864:	94 c6       	rjmp	.+3368   	; 0x158e <_ZN9EtherComm11SendCommandEhh>
     866:	08 95       	ret

00000868 <_Z13RunLedCommandPKhh>:
}

void RunLedCommand(const uint8_t* data, uint8_t len){
	if(len == 1){
     868:	61 30       	cpi	r22, 0x01	; 1
     86a:	51 f4       	brne	.+20     	; 0x880 <_Z13RunLedCommandPKhh+0x18>
		uint8_t state = *data;
     86c:	fc 01       	movw	r30, r24
     86e:	90 81       	ld	r25, Z
		if(state <= 1){
     870:	92 30       	cpi	r25, 0x02	; 2
     872:	30 f4       	brcc	.+12     	; 0x880 <_Z13RunLedCommandPKhh+0x18>
			rov.SetLed(state > 0);
     874:	81 e0       	ldi	r24, 0x01	; 1
     876:	91 11       	cpse	r25, r1
     878:	01 c0       	rjmp	.+2      	; 0x87c <_Z13RunLedCommandPKhh+0x14>
     87a:	80 e0       	ldi	r24, 0x00	; 0
     87c:	0c 94 fa 11 	jmp	0x23f4	; 0x23f4 <_ZN5Robot6SetLedEb>
     880:	08 95       	ret

00000882 <_Z22RunUpdateDeviceCommandPKhh>:
		}
	}
}

void RunUpdateDeviceCommand(const uint8_t* data, uint8_t len){
	if(len > 0){
     882:	66 23       	and	r22, r22
     884:	c1 f0       	breq	.+48     	; 0x8b6 <_Z22RunUpdateDeviceCommandPKhh+0x34>
		if(Robot::devices[data[0]] != NULL){
     886:	dc 01       	movw	r26, r24
     888:	ec 91       	ld	r30, X
     88a:	f0 e0       	ldi	r31, 0x00	; 0
     88c:	ee 0f       	add	r30, r30
     88e:	ff 1f       	adc	r31, r31
     890:	e5 52       	subi	r30, 0x25	; 37
     892:	f9 4f       	sbci	r31, 0xF9	; 249
     894:	a0 81       	ld	r26, Z
     896:	b1 81       	ldd	r27, Z+1	; 0x01
     898:	10 97       	sbiw	r26, 0x00	; 0
     89a:	69 f0       	breq	.+26     	; 0x8b6 <_Z22RunUpdateDeviceCommandPKhh+0x34>
     89c:	46 2f       	mov	r20, r22
     89e:	bc 01       	movw	r22, r24
			Robot::devices[data[0]]->Update(data + 1, len - 1);
     8a0:	41 50       	subi	r20, 0x01	; 1
     8a2:	6f 5f       	subi	r22, 0xFF	; 255
     8a4:	7f 4f       	sbci	r23, 0xFF	; 255
     8a6:	ed 91       	ld	r30, X+
     8a8:	fc 91       	ld	r31, X
     8aa:	11 97       	sbiw	r26, 0x01	; 1
     8ac:	01 90       	ld	r0, Z+
     8ae:	f0 81       	ld	r31, Z
     8b0:	e0 2d       	mov	r30, r0
     8b2:	cd 01       	movw	r24, r26
     8b4:	19 95       	eicall
     8b6:	08 95       	ret

000008b8 <_ZN9EtherComm15CommandReceivedEhPKhh>:
		}
	}
}

void EtherComm::CommandReceived(uint8_t command, const uint8_t* data, uint8_t len){
     8b8:	9b 01       	movw	r18, r22
  switch(command){
     8ba:	81 30       	cpi	r24, 0x01	; 1
     8bc:	51 f0       	breq	.+20     	; 0x8d2 <_ZN9EtherComm15CommandReceivedEhPKhh+0x1a>
     8be:	28 f0       	brcs	.+10     	; 0x8ca <_ZN9EtherComm15CommandReceivedEhPKhh+0x12>
     8c0:	82 30       	cpi	r24, 0x02	; 2
     8c2:	59 f0       	breq	.+22     	; 0x8da <_ZN9EtherComm15CommandReceivedEhPKhh+0x22>
     8c4:	83 30       	cpi	r24, 0x03	; 3
     8c6:	69 f0       	breq	.+26     	; 0x8e2 <_ZN9EtherComm15CommandReceivedEhPKhh+0x2a>
     8c8:	08 95       	ret
    case CMD_Ping: RunPingCommand(data, len); break;
     8ca:	64 2f       	mov	r22, r20
     8cc:	c9 01       	movw	r24, r18
     8ce:	ad cf       	rjmp	.-166    	; 0x82a <_Z14RunPingCommandPKhh>
     8d0:	08 95       	ret
    case CMD_Echo: RunEchoCommand(data, len); break;
     8d2:	64 2f       	mov	r22, r20
     8d4:	c9 01       	movw	r24, r18
     8d6:	b5 cf       	rjmp	.-150    	; 0x842 <_Z14RunEchoCommandPKhh>
     8d8:	08 95       	ret
	case CMD_Led: RunLedCommand(data, len); break;
     8da:	64 2f       	mov	r22, r20
     8dc:	c9 01       	movw	r24, r18
     8de:	c4 cf       	rjmp	.-120    	; 0x868 <_Z13RunLedCommandPKhh>
     8e0:	08 95       	ret
	case CMD_UpdateDevice: RunUpdateDeviceCommand(data, len); break;
     8e2:	64 2f       	mov	r22, r20
     8e4:	c9 01       	movw	r24, r18
     8e6:	cd cf       	rjmp	.-102    	; 0x882 <_Z22RunUpdateDeviceCommandPKhh>
     8e8:	08 95       	ret

000008ea <_GLOBAL__sub_I__Z14RunPingCommandPKhh>:
     8ea:	80 91 00 02 	lds	r24, 0x0200	; 0x800200 <_ZN9EtherComm6bufferE>
#include "EtherComm.h"
#include "Robot.h"
#include "Commands.h"
#include <stddef.h>

uint8_t* const SendDataBuffer = (uint8_t*)(&EtherComm::buffer[2]);
     8ee:	90 91 01 02 	lds	r25, 0x0201	; 0x800201 <_ZN9EtherComm6bufferE+0x1>
     8f2:	02 96       	adiw	r24, 0x02	; 2
     8f4:	90 93 e9 02 	sts	0x02E9, r25	; 0x8002e9 <__data_end+0x1>
     8f8:	80 93 e8 02 	sts	0x02E8, r24	; 0x8002e8 <__data_end>
     8fc:	08 95       	ret

000008fe <_ZL10enableChipv>:
    SPCR = bit(SPE) | bit(MSTR); // 8 MHz @ 16
    bitSet(SPSR, SPI2X);
}

static void enableChip () {
    cli();
     8fe:	f8 94       	cli
    SetLow(*selectPort, selectPin); //digitalWrite(selectPin, LOW);
     900:	e0 91 ee 02 	lds	r30, 0x02EE	; 0x8002ee <_ZL10selectPort>
     904:	f0 91 ef 02 	lds	r31, 0x02EF	; 0x8002ef <_ZL10selectPort+0x1>
     908:	90 81       	ld	r25, Z
     90a:	80 91 ed 02 	lds	r24, 0x02ED	; 0x8002ed <_ZL9selectPin>
     90e:	80 95       	com	r24
     910:	89 23       	and	r24, r25
     912:	80 83       	st	Z, r24
     914:	08 95       	ret

00000916 <_ZL11disableChipv>:
}

static void disableChip () {
    SetHigh(*selectPort, selectPin); //digitalWrite(selectPin, HIGH);
     916:	e0 91 ee 02 	lds	r30, 0x02EE	; 0x8002ee <_ZL10selectPort>
     91a:	f0 91 ef 02 	lds	r31, 0x02EF	; 0x8002ef <_ZL10selectPort+0x1>
     91e:	90 81       	ld	r25, Z
     920:	80 91 ed 02 	lds	r24, 0x02ED	; 0x8002ed <_ZL9selectPin>
     924:	89 2b       	or	r24, r25
     926:	80 83       	st	Z, r24
    sei();
     928:	78 94       	sei
     92a:	08 95       	ret

0000092c <_ZL7xferSPIh>:
}

static void xferSPI (uint8_t data) {
    SPDR = data;
     92c:	8e bd       	out	0x2e, r24	; 46
    while (!(SPSR&(1<<SPIF)))
     92e:	0d b4       	in	r0, 0x2d	; 45
     930:	07 fe       	sbrs	r0, 7
     932:	fd cf       	rjmp	.-6      	; 0x92e <_ZL7xferSPIh+0x2>
        ;
}
     934:	08 95       	ret

00000936 <_ZL7writeOphhh>:
    uint8_t result = SPDR;
    disableChip();
    return result;
}

static void writeOp (uint8_t op, uint8_t address, uint8_t data) {
     936:	1f 93       	push	r17
     938:	cf 93       	push	r28
     93a:	df 93       	push	r29
     93c:	18 2f       	mov	r17, r24
     93e:	c6 2f       	mov	r28, r22
     940:	d4 2f       	mov	r29, r20
    enableChip();
     942:	dd df       	rcall	.-70     	; 0x8fe <_ZL10enableChipv>
    xferSPI(op | (address & ADDR_MASK));
     944:	8c 2f       	mov	r24, r28
     946:	8f 71       	andi	r24, 0x1F	; 31
     948:	81 2b       	or	r24, r17
     94a:	f0 df       	rcall	.-32     	; 0x92c <_ZL7xferSPIh>
    xferSPI(data);
     94c:	8d 2f       	mov	r24, r29
     94e:	ee df       	rcall	.-36     	; 0x92c <_ZL7xferSPIh>
    disableChip();
     950:	e2 df       	rcall	.-60     	; 0x916 <_ZL11disableChipv>
     952:	df 91       	pop	r29
}
     954:	cf 91       	pop	r28
     956:	1f 91       	pop	r17
     958:	08 95       	ret

0000095a <_ZL7readBufjPh>:
     95a:	0f 93       	push	r16

static void readBuf(uint16_t len, uint8_t* data) {
     95c:	1f 93       	push	r17
     95e:	cf 93       	push	r28
     960:	df 93       	push	r29
     962:	ec 01       	movw	r28, r24
     964:	8b 01       	movw	r16, r22
    uint8_t nextbyte;

    enableChip();
     966:	cb df       	rcall	.-106    	; 0x8fe <_ZL10enableChipv>
    if (len != 0) {
     968:	20 97       	sbiw	r28, 0x00	; 0
     96a:	c1 f0       	breq	.+48     	; 0x99c <_ZL7readBufjPh+0x42>
        xferSPI(ENC28J60_READ_BUF_MEM);
     96c:	8a e3       	ldi	r24, 0x3A	; 58
     96e:	de df       	rcall	.-68     	; 0x92c <_ZL7xferSPIh>

        SPDR = 0x00;
     970:	1e bc       	out	0x2e, r1	; 46
        while (--len) {
     972:	21 97       	sbiw	r28, 0x01	; 1
     974:	69 f0       	breq	.+26     	; 0x990 <_ZL7readBufjPh+0x36>
     976:	f8 01       	movw	r30, r16
     978:	0c 0f       	add	r16, r28
     97a:	1d 1f       	adc	r17, r29
     97c:	98 01       	movw	r18, r16
            while (!(SPSR & (1<<SPIF)))
     97e:	0d b4       	in	r0, 0x2d	; 45
     980:	07 fe       	sbrs	r0, 7
     982:	fd cf       	rjmp	.-6      	; 0x97e <_ZL7readBufjPh+0x24>
                ;
            nextbyte = SPDR;
     984:	8e b5       	in	r24, 0x2e	; 46
            SPDR = 0x00;
     986:	1e bc       	out	0x2e, r1	; 46
            *data++ = nextbyte;
     988:	81 93       	st	Z+, r24
    enableChip();
    if (len != 0) {
        xferSPI(ENC28J60_READ_BUF_MEM);

        SPDR = 0x00;
        while (--len) {
     98a:	e2 17       	cp	r30, r18
     98c:	f3 07       	cpc	r31, r19
     98e:	b9 f7       	brne	.-18     	; 0x97e <_ZL7readBufjPh+0x24>
                ;
            nextbyte = SPDR;
            SPDR = 0x00;
            *data++ = nextbyte;
        }
        while (!(SPSR & (1<<SPIF)))
     990:	0d b4       	in	r0, 0x2d	; 45
     992:	07 fe       	sbrs	r0, 7
     994:	fd cf       	rjmp	.-6      	; 0x990 <_ZL7readBufjPh+0x36>
            ;
        *data++ = SPDR;
     996:	8e b5       	in	r24, 0x2e	; 46
     998:	f8 01       	movw	r30, r16
    }
    disableChip();
     99a:	80 83       	st	Z, r24
     99c:	bc df       	rcall	.-136    	; 0x916 <_ZL11disableChipv>
}
     99e:	df 91       	pop	r29
     9a0:	cf 91       	pop	r28
     9a2:	1f 91       	pop	r17
     9a4:	0f 91       	pop	r16
     9a6:	08 95       	ret

000009a8 <_ZL8writeBufjPKh>:

static void writeBuf(uint16_t len, const uint8_t* data) {
     9a8:	0f 93       	push	r16
     9aa:	1f 93       	push	r17
     9ac:	cf 93       	push	r28
     9ae:	df 93       	push	r29
     9b0:	ec 01       	movw	r28, r24
     9b2:	8b 01       	movw	r16, r22
    enableChip();
     9b4:	a4 df       	rcall	.-184    	; 0x8fe <_ZL10enableChipv>
    if (len != 0) {
     9b6:	20 97       	sbiw	r28, 0x00	; 0
     9b8:	c1 f0       	breq	.+48     	; 0x9ea <_ZL8writeBufjPKh+0x42>
        xferSPI(ENC28J60_WRITE_BUF_MEM);
     9ba:	8a e7       	ldi	r24, 0x7A	; 122
     9bc:	b7 df       	rcall	.-146    	; 0x92c <_ZL7xferSPIh>

        SPDR = *data++;
     9be:	f8 01       	movw	r30, r16
     9c0:	31 96       	adiw	r30, 0x01	; 1
     9c2:	d8 01       	movw	r26, r16
     9c4:	8c 91       	ld	r24, X
     9c6:	8e bd       	out	0x2e, r24	; 46
        while (--len) {
     9c8:	c1 30       	cpi	r28, 0x01	; 1
     9ca:	d1 05       	cpc	r29, r1
     9cc:	59 f0       	breq	.+22     	; 0x9e4 <_ZL8writeBufjPKh+0x3c>
     9ce:	b8 01       	movw	r22, r16
     9d0:	6c 0f       	add	r22, r28
     9d2:	7d 1f       	adc	r23, r29
            uint8_t nextbyte = *data++;
     9d4:	91 91       	ld	r25, Z+
        	while (!(SPSR & (1<<SPIF)))
     9d6:	0d b4       	in	r0, 0x2d	; 45
     9d8:	07 fe       	sbrs	r0, 7
     9da:	fd cf       	rjmp	.-6      	; 0x9d6 <_ZL8writeBufjPKh+0x2e>
                ;
            SPDR = nextbyte;
     9dc:	9e bd       	out	0x2e, r25	; 46
    enableChip();
    if (len != 0) {
        xferSPI(ENC28J60_WRITE_BUF_MEM);

        SPDR = *data++;
        while (--len) {
     9de:	e6 17       	cp	r30, r22
     9e0:	f7 07       	cpc	r31, r23
     9e2:	c1 f7       	brne	.-16     	; 0x9d4 <_ZL8writeBufjPKh+0x2c>
            uint8_t nextbyte = *data++;
        	while (!(SPSR & (1<<SPIF)))
                ;
            SPDR = nextbyte;
     	};
        while (!(SPSR & (1<<SPIF)))
     9e4:	0d b4       	in	r0, 0x2d	; 45
     9e6:	07 fe       	sbrs	r0, 7
            ;
    }
    disableChip();
     9e8:	fd cf       	rjmp	.-6      	; 0x9e4 <_ZL8writeBufjPKh+0x3c>
     9ea:	95 df       	rcall	.-214    	; 0x916 <_ZL11disableChipv>
}
     9ec:	df 91       	pop	r29
     9ee:	cf 91       	pop	r28
     9f0:	1f 91       	pop	r17
     9f2:	0f 91       	pop	r16
     9f4:	08 95       	ret

000009f6 <_ZL7SetBankh>:

static void SetBank (uint8_t address) {
     9f6:	1f 93       	push	r17
     9f8:	cf 93       	push	r28
     9fa:	df 93       	push	r29
     9fc:	18 2f       	mov	r17, r24
     9fe:	10 76       	andi	r17, 0x60	; 96
    if ((address & BANK_MASK) != Enc28j60Bank) {
     a00:	c1 2f       	mov	r28, r17
     a02:	d0 e0       	ldi	r29, 0x00	; 0
     a04:	80 91 f0 02 	lds	r24, 0x02F0	; 0x8002f0 <_ZL12Enc28j60Bank>
     a08:	90 e0       	ldi	r25, 0x00	; 0
     a0a:	c8 17       	cp	r28, r24
     a0c:	d9 07       	cpc	r29, r25
     a0e:	a1 f0       	breq	.+40     	; 0xa38 <_ZL7SetBankh+0x42>
        writeOp(ENC28J60_BIT_FIELD_CLR, ECON1, ECON1_BSEL1|ECON1_BSEL0);
     a10:	43 e0       	ldi	r20, 0x03	; 3
     a12:	6f e1       	ldi	r22, 0x1F	; 31
     a14:	80 ea       	ldi	r24, 0xA0	; 160
     a16:	8f df       	rcall	.-226    	; 0x936 <_ZL7writeOphhh>
        Enc28j60Bank = address & BANK_MASK;
     a18:	10 93 f0 02 	sts	0x02F0, r17	; 0x8002f0 <_ZL12Enc28j60Bank>
        writeOp(ENC28J60_BIT_FIELD_SET, ECON1, Enc28j60Bank>>5);
     a1c:	ae 01       	movw	r20, r28
     a1e:	55 95       	asr	r21
     a20:	47 95       	ror	r20
     a22:	55 95       	asr	r21
     a24:	47 95       	ror	r20
     a26:	55 95       	asr	r21
     a28:	47 95       	ror	r20
     a2a:	55 95       	asr	r21
     a2c:	47 95       	ror	r20
     a2e:	55 95       	asr	r21
     a30:	47 95       	ror	r20
     a32:	6f e1       	ldi	r22, 0x1F	; 31
     a34:	80 e8       	ldi	r24, 0x80	; 128
     a36:	7f df       	rcall	.-258    	; 0x936 <_ZL7writeOphhh>
    }
}
     a38:	df 91       	pop	r29
     a3a:	cf 91       	pop	r28
     a3c:	1f 91       	pop	r17
     a3e:	08 95       	ret

00000a40 <_ZL11readRegByteh>:

static uint8_t readRegByte (uint8_t address) {
     a40:	cf 93       	push	r28
     a42:	c8 2f       	mov	r28, r24
    SetBank(address);
     a44:	d8 df       	rcall	.-80     	; 0x9f6 <_ZL7SetBankh>
    while (!(SPSR&(1<<SPIF)))
        ;
}

static uint8_t readOp (uint8_t op, uint8_t address) {
    enableChip();
     a46:	5b df       	rcall	.-330    	; 0x8fe <_ZL10enableChipv>
     a48:	8c 2f       	mov	r24, r28
    xferSPI(op | (address & ADDR_MASK));
     a4a:	8f 71       	andi	r24, 0x1F	; 31
     a4c:	6f df       	rcall	.-290    	; 0x92c <_ZL7xferSPIh>
    xferSPI(0x00);
     a4e:	80 e0       	ldi	r24, 0x00	; 0
     a50:	6d df       	rcall	.-294    	; 0x92c <_ZL7xferSPIh>
    if (address & 0x80)
     a52:	cc 23       	and	r28, r28
        xferSPI(0x00);
     a54:	14 f4       	brge	.+4      	; 0xa5a <_ZL11readRegByteh+0x1a>
     a56:	80 e0       	ldi	r24, 0x00	; 0
     a58:	69 df       	rcall	.-302    	; 0x92c <_ZL7xferSPIh>
    uint8_t result = SPDR;
     a5a:	ce b5       	in	r28, 0x2e	; 46
    disableChip();
     a5c:	5c df       	rcall	.-328    	; 0x916 <_ZL11disableChipv>
     a5e:	8c 2f       	mov	r24, r28
}

static uint8_t readRegByte (uint8_t address) {
    SetBank(address);
    return readOp(ENC28J60_READ_CTRL_REG, address);
}
     a60:	cf 91       	pop	r28
     a62:	08 95       	ret

00000a64 <_ZL12writeRegBytehh>:
     a64:	cf 93       	push	r28

static uint16_t readReg(uint8_t address) {
    return readRegByte(address) + (readRegByte(address+1) << 8);
}

static void writeRegByte (uint8_t address, uint8_t data) {
     a66:	df 93       	push	r29
     a68:	c8 2f       	mov	r28, r24
     a6a:	d6 2f       	mov	r29, r22
    SetBank(address);
     a6c:	c4 df       	rcall	.-120    	; 0x9f6 <_ZL7SetBankh>
    writeOp(ENC28J60_WRITE_CTRL_REG, address, data);
     a6e:	4d 2f       	mov	r20, r29
     a70:	6c 2f       	mov	r22, r28
     a72:	80 e4       	ldi	r24, 0x40	; 64
     a74:	60 df       	rcall	.-320    	; 0x936 <_ZL7writeOphhh>
}
     a76:	df 91       	pop	r29
     a78:	cf 91       	pop	r28
     a7a:	08 95       	ret

00000a7c <_ZL8writeReghj>:

static void writeReg(uint8_t address, uint16_t data) {
     a7c:	cf 93       	push	r28
     a7e:	df 93       	push	r29
     a80:	c8 2f       	mov	r28, r24
     a82:	d7 2f       	mov	r29, r23
    writeRegByte(address, data);
     a84:	ef df       	rcall	.-34     	; 0xa64 <_ZL12writeRegBytehh>
    writeRegByte(address + 1, data >> 8);
     a86:	6d 2f       	mov	r22, r29
     a88:	81 e0       	ldi	r24, 0x01	; 1
     a8a:	8c 0f       	add	r24, r28
     a8c:	eb df       	rcall	.-42     	; 0xa64 <_ZL12writeRegBytehh>
}
     a8e:	df 91       	pop	r29
     a90:	cf 91       	pop	r28
     a92:	08 95       	ret

00000a94 <_ZL8writePhyhj>:
        ;
    writeRegByte(MICMD, 0x00);
    return readRegByte(MIRD+1);
}

static void writePhy (uint8_t address, uint16_t data) {
     a94:	cf 93       	push	r28
     a96:	df 93       	push	r29
     a98:	eb 01       	movw	r28, r22
    writeRegByte(MIREGADR, address);
     a9a:	68 2f       	mov	r22, r24
     a9c:	84 ed       	ldi	r24, 0xD4	; 212
     a9e:	e2 df       	rcall	.-60     	; 0xa64 <_ZL12writeRegBytehh>
    writeReg(MIWR, data);
     aa0:	be 01       	movw	r22, r28
     aa2:	86 ed       	ldi	r24, 0xD6	; 214
     aa4:	eb df       	rcall	.-42     	; 0xa7c <_ZL8writeReghj>
    while (readRegByte(MISTAT) & MISTAT_BUSY)
     aa6:	8a ee       	ldi	r24, 0xEA	; 234
     aa8:	cb df       	rcall	.-106    	; 0xa40 <_ZL11readRegByteh>
     aaa:	80 fd       	sbrc	r24, 0
     aac:	fc cf       	rjmp	.-8      	; 0xaa6 <_ZL8writePhyhj+0x12>
     aae:	df 91       	pop	r29
        ;
}
     ab0:	cf 91       	pop	r28
     ab2:	08 95       	ret

00000ab4 <_ZN8ENC28J607initSPIEv>:
     ab4:	20 9a       	sbi	0x04, 0	; 4
static Register* selectPort;
static uint8_t selectPin;

void ENC28J60::initSPI () {
	SetOutput(SpiDDR, SpiPin_SS); //pinMode(SpiPin_SS, OUTPUT);
    SetHigh(SpiPort, SpiPin_SS); //digitalWrite(SpiPin_SS, HIGH);
     ab6:	28 9a       	sbi	0x05, 0	; 5
    SetOutput(SpiDDR, SpiPin_MOSI); //pinMode(SpiPin_MOSI, OUTPUT);
     ab8:	22 9a       	sbi	0x04, 2	; 4
    SetOutput(SpiDDR, SpiPin_SCK); //pinMode(SpiPin_SCK, OUTPUT);
     aba:	21 9a       	sbi	0x04, 1	; 4
    SetInput(SpiDDR, SpiPin_MISO); //pinMode(SpiPin_MISO, INPUT);
     abc:	23 98       	cbi	0x04, 3	; 4

    SetHigh(SpiPort, SpiPin_MOSI); //digitalWrite(SpiPin_MOSI, HIGH);
     abe:	2a 9a       	sbi	0x05, 2	; 5
    SetLow(SpiPort, SpiPin_MOSI); //digitalWrite(SpiPin_MOSI, LOW);
     ac0:	2a 98       	cbi	0x05, 2	; 5
    SetLow(SpiPort, SpiPin_SCK); //digitalWrite(SpiPin_SCK, LOW);
     ac2:	29 98       	cbi	0x05, 1	; 5

    SPCR = bit(SPE) | bit(MSTR); // 8 MHz @ 16
     ac4:	80 e5       	ldi	r24, 0x50	; 80
     ac6:	8c bd       	out	0x2c, r24	; 44
    bitSet(SPSR, SPI2X);
     ac8:	8d b5       	in	r24, 0x2d	; 45
     aca:	81 60       	ori	r24, 0x01	; 1
     acc:	8d bd       	out	0x2d, r24	; 45
     ace:	08 95       	ret

00000ad0 <_ZN8ENC28J6010initializeEjPKhRVhS3_h>:
    writeReg(MIWR, data);
    while (readRegByte(MISTAT) & MISTAT_BUSY)
        ;
}

uint8_t ENC28J60::initialize (uint16_t size, const uint8_t* macaddr, Register& csDDR, Register& csPort, uint8_t csPin) {
     ad0:	cf 92       	push	r12
     ad2:	df 92       	push	r13
     ad4:	ef 92       	push	r14
     ad6:	ff 92       	push	r15
     ad8:	0f 93       	push	r16
     ada:	cf 93       	push	r28
     adc:	df 93       	push	r29
     ade:	7b 01       	movw	r14, r22
     ae0:	ea 01       	movw	r28, r20
     ae2:	69 01       	movw	r12, r18
    bufferSize = size;
     ae4:	90 93 f2 02 	sts	0x02F2, r25	; 0x8002f2 <_ZN8ENC28J6010bufferSizeE+0x1>
     ae8:	80 93 f1 02 	sts	0x02F1, r24	; 0x8002f1 <_ZN8ENC28J6010bufferSizeE>
    if (bitRead(SPCR, SPE) == 0)
     aec:	0c b4       	in	r0, 0x2c	; 44
     aee:	06 fe       	sbrs	r0, 6
        initSPI();
     af0:	e1 df       	rcall	.-62     	; 0xab4 <_ZN8ENC28J607initSPIEv>
    selectPin = csPin;
     af2:	00 93 ed 02 	sts	0x02ED, r16	; 0x8002ed <_ZL9selectPin>
	selectPort = &csPort;
     af6:	d0 92 ef 02 	sts	0x02EF, r13	; 0x8002ef <_ZL10selectPort+0x1>
     afa:	c0 92 ee 02 	sts	0x02EE, r12	; 0x8002ee <_ZL10selectPort>
    SetHigh(csDDR, csPin); //pinMode(selectPin, OUTPUT);
     afe:	88 81       	ld	r24, Y
     b00:	08 2b       	or	r16, r24
    disableChip();
     b02:	08 83       	st	Y, r16
     b04:	08 df       	rcall	.-496    	; 0x916 <_ZL11disableChipv>

    writeOp(ENC28J60_SOFT_RESET, 0, ENC28J60_SOFT_RESET);
     b06:	4f ef       	ldi	r20, 0xFF	; 255
     b08:	60 e0       	ldi	r22, 0x00	; 0
     b0a:	8f ef       	ldi	r24, 0xFF	; 255
     b0c:	14 df       	rcall	.-472    	; 0x936 <_ZL7writeOphhh>
	#else
		//round up by default
		__ticks_dc = (uint32_t)(ceil(fabs(__tmp)));
	#endif

	__builtin_avr_delay_cycles(__ticks_dc);
     b0e:	83 ef       	ldi	r24, 0xF3	; 243
     b10:	91 e0       	ldi	r25, 0x01	; 1
     b12:	01 97       	sbiw	r24, 0x01	; 1
     b14:	f1 f7       	brne	.-4      	; 0xb12 <_ZN8ENC28J6010initializeEjPKhRVhS3_h+0x42>
     b16:	00 c0       	rjmp	.+0      	; 0xb18 <_ZN8ENC28J6010initializeEjPKhRVhS3_h+0x48>
    while (!(SPSR&(1<<SPIF)))
        ;
}

static uint8_t readOp (uint8_t op, uint8_t address) {
    enableChip();
     b18:	00 00       	nop
    xferSPI(op | (address & ADDR_MASK));
     b1a:	f1 de       	rcall	.-542    	; 0x8fe <_ZL10enableChipv>
     b1c:	8d e1       	ldi	r24, 0x1D	; 29
    xferSPI(0x00);
     b1e:	06 df       	rcall	.-500    	; 0x92c <_ZL7xferSPIh>
     b20:	80 e0       	ldi	r24, 0x00	; 0
     b22:	04 df       	rcall	.-504    	; 0x92c <_ZL7xferSPIh>
    if (address & 0x80)
        xferSPI(0x00);
    uint8_t result = SPDR;
     b24:	ce b5       	in	r28, 0x2e	; 46
    disableChip();
     b26:	f7 de       	rcall	.-530    	; 0x916 <_ZL11disableChipv>
    SetHigh(csDDR, csPin); //pinMode(selectPin, OUTPUT);
    disableChip();

    writeOp(ENC28J60_SOFT_RESET, 0, ENC28J60_SOFT_RESET);
	_delay_ms(2);
    while (!readOp(ENC28J60_READ_CTRL_REG, ESTAT) & ESTAT_CLKRDY)
     b28:	cc 23       	and	r28, r28
     b2a:	b9 f3       	breq	.-18     	; 0xb1a <_ZN8ENC28J6010initializeEjPKhRVhS3_h+0x4a>
        ;

    writeReg(ERXST, RXSTART_INIT);
     b2c:	60 e0       	ldi	r22, 0x00	; 0
     b2e:	70 e0       	ldi	r23, 0x00	; 0
     b30:	88 e0       	ldi	r24, 0x08	; 8
     b32:	a4 df       	rcall	.-184    	; 0xa7c <_ZL8writeReghj>
    writeReg(ERXRDPT, RXSTART_INIT);
     b34:	60 e0       	ldi	r22, 0x00	; 0
     b36:	70 e0       	ldi	r23, 0x00	; 0
     b38:	8c e0       	ldi	r24, 0x0C	; 12
     b3a:	a0 df       	rcall	.-192    	; 0xa7c <_ZL8writeReghj>
    writeReg(ERXND, RXSTOP_INIT);
     b3c:	6f ef       	ldi	r22, 0xFF	; 255
     b3e:	7b e0       	ldi	r23, 0x0B	; 11
     b40:	8a e0       	ldi	r24, 0x0A	; 10
     b42:	9c df       	rcall	.-200    	; 0xa7c <_ZL8writeReghj>
    writeReg(ETXST, TXSTART_INIT);
     b44:	60 e0       	ldi	r22, 0x00	; 0
     b46:	7c e0       	ldi	r23, 0x0C	; 12
     b48:	84 e0       	ldi	r24, 0x04	; 4
     b4a:	98 df       	rcall	.-208    	; 0xa7c <_ZL8writeReghj>
    writeReg(ETXND, TXSTOP_INIT);
     b4c:	6f ef       	ldi	r22, 0xFF	; 255
     b4e:	71 e1       	ldi	r23, 0x11	; 17
     b50:	86 e0       	ldi	r24, 0x06	; 6
     b52:	94 df       	rcall	.-216    	; 0xa7c <_ZL8writeReghj>

    // Stretch pulses for LED, LED_A=Link, LED_B=activity
    writePhy(PHLCON, 0x476);
     b54:	66 e7       	ldi	r22, 0x76	; 118
     b56:	74 e0       	ldi	r23, 0x04	; 4
     b58:	84 e1       	ldi	r24, 0x14	; 20
     b5a:	9c df       	rcall	.-200    	; 0xa94 <_ZL8writePhyhj>

    writeRegByte(ERXFCON, ERXFCON_UCEN|ERXFCON_CRCEN|ERXFCON_PMEN|ERXFCON_BCEN);
     b5c:	61 eb       	ldi	r22, 0xB1	; 177
     b5e:	88 e3       	ldi	r24, 0x38	; 56
     b60:	81 df       	rcall	.-254    	; 0xa64 <_ZL12writeRegBytehh>
    writeReg(EPMM0, 0x303f);
     b62:	6f e3       	ldi	r22, 0x3F	; 63
     b64:	70 e3       	ldi	r23, 0x30	; 48
     b66:	88 e2       	ldi	r24, 0x28	; 40
     b68:	89 df       	rcall	.-238    	; 0xa7c <_ZL8writeReghj>
    writeReg(EPMCS, 0xf7f9);
     b6a:	69 ef       	ldi	r22, 0xF9	; 249
     b6c:	77 ef       	ldi	r23, 0xF7	; 247
     b6e:	80 e3       	ldi	r24, 0x30	; 48
     b70:	85 df       	rcall	.-246    	; 0xa7c <_ZL8writeReghj>
    writeRegByte(MACON1, MACON1_MARXEN);
     b72:	61 e0       	ldi	r22, 0x01	; 1
     b74:	80 ec       	ldi	r24, 0xC0	; 192
     b76:	76 df       	rcall	.-276    	; 0xa64 <_ZL12writeRegBytehh>
    writeOp(ENC28J60_BIT_FIELD_SET, MACON3,
            MACON3_PADCFG0|MACON3_TXCRCEN|MACON3_FRMLNEN);
     b78:	42 e3       	ldi	r20, 0x32	; 50
     b7a:	62 ec       	ldi	r22, 0xC2	; 194
     b7c:	80 e8       	ldi	r24, 0x80	; 128
     b7e:	db de       	rcall	.-586    	; 0x936 <_ZL7writeOphhh>
    writeReg(MAIPG, 0x0C12);
     b80:	62 e1       	ldi	r22, 0x12	; 18
     b82:	7c e0       	ldi	r23, 0x0C	; 12
     b84:	86 ec       	ldi	r24, 0xC6	; 198
     b86:	7a df       	rcall	.-268    	; 0xa7c <_ZL8writeReghj>
    writeRegByte(MABBIPG, 0x12);
     b88:	62 e1       	ldi	r22, 0x12	; 18
     b8a:	84 ec       	ldi	r24, 0xC4	; 196
     b8c:	6b df       	rcall	.-298    	; 0xa64 <_ZL12writeRegBytehh>
    writeReg(MAMXFL, MAX_FRAMELEN);
     b8e:	6c ed       	ldi	r22, 0xDC	; 220
     b90:	75 e0       	ldi	r23, 0x05	; 5
     b92:	8a ec       	ldi	r24, 0xCA	; 202
     b94:	73 df       	rcall	.-282    	; 0xa7c <_ZL8writeReghj>
    writeRegByte(MAADR5, macaddr[0]);
     b96:	f7 01       	movw	r30, r14
     b98:	60 81       	ld	r22, Z
     b9a:	84 ee       	ldi	r24, 0xE4	; 228
     b9c:	63 df       	rcall	.-314    	; 0xa64 <_ZL12writeRegBytehh>
    writeRegByte(MAADR4, macaddr[1]);
     b9e:	f7 01       	movw	r30, r14
     ba0:	61 81       	ldd	r22, Z+1	; 0x01
     ba2:	85 ee       	ldi	r24, 0xE5	; 229
    writeRegByte(MAADR3, macaddr[2]);
     ba4:	5f df       	rcall	.-322    	; 0xa64 <_ZL12writeRegBytehh>
     ba6:	f7 01       	movw	r30, r14
     ba8:	62 81       	ldd	r22, Z+2	; 0x02
     baa:	82 ee       	ldi	r24, 0xE2	; 226
    writeRegByte(MAADR2, macaddr[3]);
     bac:	5b df       	rcall	.-330    	; 0xa64 <_ZL12writeRegBytehh>
     bae:	f7 01       	movw	r30, r14
     bb0:	63 81       	ldd	r22, Z+3	; 0x03
    writeRegByte(MAADR1, macaddr[4]);
     bb2:	83 ee       	ldi	r24, 0xE3	; 227
     bb4:	57 df       	rcall	.-338    	; 0xa64 <_ZL12writeRegBytehh>
     bb6:	f7 01       	movw	r30, r14
     bb8:	64 81       	ldd	r22, Z+4	; 0x04
     bba:	80 ee       	ldi	r24, 0xE0	; 224
    writeRegByte(MAADR0, macaddr[5]);
     bbc:	53 df       	rcall	.-346    	; 0xa64 <_ZL12writeRegBytehh>
     bbe:	f7 01       	movw	r30, r14
     bc0:	65 81       	ldd	r22, Z+5	; 0x05
     bc2:	81 ee       	ldi	r24, 0xE1	; 225
     bc4:	4f df       	rcall	.-354    	; 0xa64 <_ZL12writeRegBytehh>
    writePhy(PHCON2, PHCON2_HDLDIS);
     bc6:	60 e0       	ldi	r22, 0x00	; 0
     bc8:	71 e0       	ldi	r23, 0x01	; 1
     bca:	80 e1       	ldi	r24, 0x10	; 16
     bcc:	63 df       	rcall	.-314    	; 0xa94 <_ZL8writePhyhj>
     bce:	8f e1       	ldi	r24, 0x1F	; 31
    SetBank(ECON1);
     bd0:	12 df       	rcall	.-476    	; 0x9f6 <_ZL7SetBankh>
     bd2:	40 ec       	ldi	r20, 0xC0	; 192
     bd4:	6b e1       	ldi	r22, 0x1B	; 27
    writeOp(ENC28J60_BIT_FIELD_SET, EIE, EIE_INTIE|EIE_PKTIE);
     bd6:	80 e8       	ldi	r24, 0x80	; 128
     bd8:	ae de       	rcall	.-676    	; 0x936 <_ZL7writeOphhh>
     bda:	44 e0       	ldi	r20, 0x04	; 4
     bdc:	6f e1       	ldi	r22, 0x1F	; 31
     bde:	80 e8       	ldi	r24, 0x80	; 128
    writeOp(ENC28J60_BIT_FIELD_SET, ECON1, ECON1_RXEN);
     be0:	aa de       	rcall	.-684    	; 0x936 <_ZL7writeOphhh>
     be2:	82 e7       	ldi	r24, 0x72	; 114
     be4:	2d df       	rcall	.-422    	; 0xa40 <_ZL11readRegByteh>
     be6:	86 30       	cpi	r24, 0x06	; 6
     be8:	08 f0       	brcs	.+2      	; 0xbec <_ZN8ENC28J6010initializeEjPKhRVhS3_h+0x11c>

    uint8_t rev = readRegByte(EREVID);
     bea:	8f 5f       	subi	r24, 0xFF	; 255
     bec:	df 91       	pop	r29
     bee:	cf 91       	pop	r28
    // microchip forgot to step the number on the silicon when they
    // released the revision B7. 6 is now rev B7. We still have
    // to see what they do when they release B8. At the moment
    // there is no B8 out yet
    if (rev > 5) ++rev;
     bf0:	0f 91       	pop	r16
     bf2:	ff 90       	pop	r15
     bf4:	ef 90       	pop	r14
    return rev;
}
     bf6:	df 90       	pop	r13
     bf8:	cf 90       	pop	r12
     bfa:	08 95       	ret

00000bfc <_ZN8ENC28J608isLinkUpEv>:
     bfc:	61 e1       	ldi	r22, 0x11	; 17
     bfe:	84 ed       	ldi	r24, 0xD4	; 212
     c00:	31 df       	rcall	.-414    	; 0xa64 <_ZL12writeRegBytehh>
     c02:	61 e0       	ldi	r22, 0x01	; 1
     c04:	82 ed       	ldi	r24, 0xD2	; 210
    writeRegByte(address + 1, data >> 8);
}

static uint16_t readPhyByte (uint8_t address) {
    writeRegByte(MIREGADR, address);
    writeRegByte(MICMD, MICMD_MIIRD);
     c06:	2e df       	rcall	.-420    	; 0xa64 <_ZL12writeRegBytehh>
    while (readRegByte(MISTAT) & MISTAT_BUSY)
     c08:	8a ee       	ldi	r24, 0xEA	; 234
     c0a:	1a df       	rcall	.-460    	; 0xa40 <_ZL11readRegByteh>
     c0c:	80 fd       	sbrc	r24, 0
     c0e:	fc cf       	rjmp	.-8      	; 0xc08 <_ZN8ENC28J608isLinkUpEv+0xc>
        ;
    writeRegByte(MICMD, 0x00);
     c10:	60 e0       	ldi	r22, 0x00	; 0
     c12:	82 ed       	ldi	r24, 0xD2	; 210
     c14:	27 df       	rcall	.-434    	; 0xa64 <_ZL12writeRegBytehh>
    return readRegByte(MIRD+1);
     c16:	89 ed       	ldi	r24, 0xD9	; 217
     c18:	13 df       	rcall	.-474    	; 0xa40 <_ZL11readRegByteh>
     c1a:	82 fb       	bst	r24, 2
    return rev;
}

bool ENC28J60::isLinkUp() {
    return (readPhyByte(PHSTAT2) >> 2) & 1;
}
     c1c:	88 27       	eor	r24, r24
     c1e:	80 f9       	bld	r24, 0
     c20:	08 95       	ret

00000c22 <_ZN8ENC28J6010packetSendEj>:
     c22:	cf 93       	push	r28
    #define BREAKORCONTINUE retry=0; continue;
#else
    #define BREAKORCONTINUE break;
#endif

void ENC28J60::packetSend(uint16_t len) {
     c24:	df 93       	push	r29
     c26:	ec 01       	movw	r28, r24
        // the Microchip TCP/IP stack implementation used to first check
        // whether TXERIF is set and only then reset the transmit logic
        // but this has been changed in later versions; possibly they
        // have a reason for this; they don't mention this in the errata
        // sheet
        writeOp(ENC28J60_BIT_FIELD_SET, ECON1, ECON1_TXRST);
     c28:	40 e8       	ldi	r20, 0x80	; 128
     c2a:	6f e1       	ldi	r22, 0x1F	; 31
     c2c:	80 e8       	ldi	r24, 0x80	; 128
     c2e:	83 de       	rcall	.-762    	; 0x936 <_ZL7writeOphhh>
        writeOp(ENC28J60_BIT_FIELD_CLR, ECON1, ECON1_TXRST);
     c30:	40 e8       	ldi	r20, 0x80	; 128
     c32:	6f e1       	ldi	r22, 0x1F	; 31
     c34:	80 ea       	ldi	r24, 0xA0	; 160
     c36:	7f de       	rcall	.-770    	; 0x936 <_ZL7writeOphhh>
        writeOp(ENC28J60_BIT_FIELD_CLR, EIR, EIR_TXERIF|EIR_TXIF);
     c38:	4a e0       	ldi	r20, 0x0A	; 10
     c3a:	6c e1       	ldi	r22, 0x1C	; 28
     c3c:	80 ea       	ldi	r24, 0xA0	; 160
     c3e:	7b de       	rcall	.-778    	; 0x936 <_ZL7writeOphhh>

        // prepare new transmission
        if (retry == 0) {
            writeReg(EWRPT, TXSTART_INIT);
     c40:	60 e0       	ldi	r22, 0x00	; 0
     c42:	7c e0       	ldi	r23, 0x0C	; 12
     c44:	82 e0       	ldi	r24, 0x02	; 2
     c46:	1a df       	rcall	.-460    	; 0xa7c <_ZL8writeReghj>
            writeReg(ETXND, TXSTART_INIT+len);
     c48:	be 01       	movw	r22, r28
     c4a:	74 5f       	subi	r23, 0xF4	; 244
     c4c:	86 e0       	ldi	r24, 0x06	; 6
     c4e:	16 df       	rcall	.-468    	; 0xa7c <_ZL8writeReghj>
            writeOp(ENC28J60_WRITE_BUF_MEM, 0, 0x00);
     c50:	40 e0       	ldi	r20, 0x00	; 0
     c52:	60 e0       	ldi	r22, 0x00	; 0
     c54:	8a e7       	ldi	r24, 0x7A	; 122
     c56:	6f de       	rcall	.-802    	; 0x936 <_ZL7writeOphhh>
            writeBuf(len, buffer);
     c58:	63 ef       	ldi	r22, 0xF3	; 243
     c5a:	72 e0       	ldi	r23, 0x02	; 2
     c5c:	ce 01       	movw	r24, r28
     c5e:	a4 de       	rcall	.-696    	; 0x9a8 <_ZL8writeBufjPKh>
        }

        // initiate transmission
        writeOp(ENC28J60_BIT_FIELD_SET, ECON1, ECON1_TXRTS);
     c60:	48 e0       	ldi	r20, 0x08	; 8
     c62:	6f e1       	ldi	r22, 0x1F	; 31
     c64:	80 e8       	ldi	r24, 0x80	; 128
     c66:	67 de       	rcall	.-818    	; 0x936 <_ZL7writeOphhh>
        // wait until transmission has finished; referring to the data sheet and
        // to the errata (Errata Issue 13; Example 1) you only need to wait until either
        // TXIF or TXERIF gets set; however this leads to hangs; apparently Microchip
        // realized this and in later implementations of their tcp/ip stack they introduced
        // a counter to avoid hangs; of course they didn't update the errata sheet
        uint16_t count = 0;
     c68:	c0 e0       	ldi	r28, 0x00	; 0
     c6a:	d0 e0       	ldi	r29, 0x00	; 0
        while ((readRegByte(EIR) & (EIR_TXIF | EIR_TXERIF)) == 0 && ++count < 1000U)
     c6c:	8c e1       	ldi	r24, 0x1C	; 28
     c6e:	e8 de       	rcall	.-560    	; 0xa40 <_ZL11readRegByteh>
     c70:	8a 70       	andi	r24, 0x0A	; 10
     c72:	31 f4       	brne	.+12     	; 0xc80 <_ZN8ENC28J6010packetSendEj+0x5e>
     c74:	21 96       	adiw	r28, 0x01	; 1
     c76:	c8 3e       	cpi	r28, 0xE8	; 232
     c78:	83 e0       	ldi	r24, 0x03	; 3
     c7a:	d8 07       	cpc	r29, r24
     c7c:	b9 f7       	brne	.-18     	; 0xc6c <_ZN8ENC28J6010packetSendEj+0x4a>
     c7e:	0c c0       	rjmp	.+24     	; 0xc98 <_ZN8ENC28J6010packetSendEj+0x76>
            ;

        if (!(readRegByte(EIR) & EIR_TXERIF) && count < 1000U) {
     c80:	8c e1       	ldi	r24, 0x1C	; 28
     c82:	de de       	rcall	.-580    	; 0xa40 <_ZL11readRegByteh>
     c84:	81 fd       	sbrc	r24, 1
     c86:	03 c0       	rjmp	.+6      	; 0xc8e <_ZN8ENC28J6010packetSendEj+0x6c>
     c88:	c8 3e       	cpi	r28, 0xE8	; 232
     c8a:	d3 40       	sbci	r29, 0x03	; 3
     c8c:	40 f0       	brcs	.+16     	; 0xc9e <_ZN8ENC28J6010packetSendEj+0x7c>
            // no error; start new transmission
            BREAKORCONTINUE
        }

        // cancel previous transmission if stuck
        writeOp(ENC28J60_BIT_FIELD_CLR, ECON1, ECON1_TXRTS);
     c8e:	48 e0       	ldi	r20, 0x08	; 8
     c90:	6f e1       	ldi	r22, 0x1F	; 31
     c92:	80 ea       	ldi	r24, 0xA0	; 160
     c94:	50 de       	rcall	.-864    	; 0x936 <_ZL7writeOphhh>
     c96:	03 c0       	rjmp	.+6      	; 0xc9e <_ZN8ENC28J6010packetSendEj+0x7c>

    #if ETHERCARD_RETRY_LATECOLLISIONS == 0
        BREAKORCONTINUE
     c98:	8c e1       	ldi	r24, 0x1C	; 28
        // a counter to avoid hangs; of course they didn't update the errata sheet
        uint16_t count = 0;
        while ((readRegByte(EIR) & (EIR_TXIF | EIR_TXERIF)) == 0 && ++count < 1000U)
            ;

        if (!(readRegByte(EIR) & EIR_TXERIF) && count < 1000U) {
     c9a:	d2 de       	rcall	.-604    	; 0xa40 <_ZL11readRegByteh>
     c9c:	f8 cf       	rjmp	.-16     	; 0xc8e <_ZN8ENC28J6010packetSendEj+0x6c>
     c9e:	df 91       	pop	r29
     ca0:	cf 91       	pop	r28
            BREAKORCONTINUE
        }

        retry++;
    }
}
     ca2:	08 95       	ret

00000ca4 <_ZN8ENC28J6013packetReceiveEv>:
     ca4:	0f 93       	push	r16
     ca6:	1f 93       	push	r17


uint16_t ENC28J60::packetReceive() {
     ca8:	cf 93       	push	r28
     caa:	df 93       	push	r29
     cac:	00 d0       	rcall	.+0      	; 0xcae <_ZN8ENC28J6013packetReceiveEv+0xa>
     cae:	00 d0       	rcall	.+0      	; 0xcb0 <_ZN8ENC28J6013packetReceiveEv+0xc>
     cb0:	cd b7       	in	r28, 0x3d	; 61
     cb2:	de b7       	in	r29, 0x3e	; 62
    static uint16_t gNextPacketPtr = RXSTART_INIT;
    static bool     unreleasedPacket = false;
    uint16_t len = 0;

    if (unreleasedPacket) {
     cb4:	80 91 ec 02 	lds	r24, 0x02EC	; 0x8002ec <_ZZN8ENC28J6013packetReceiveEvE16unreleasedPacket>
     cb8:	88 23       	and	r24, r24
     cba:	91 f0       	breq	.+36     	; 0xce0 <_ZN8ENC28J6013packetReceiveEv+0x3c>
        if (gNextPacketPtr == 0)
     cbc:	60 91 ea 02 	lds	r22, 0x02EA	; 0x8002ea <_ZZN8ENC28J6013packetReceiveEvE14gNextPacketPtr>
     cc0:	70 91 eb 02 	lds	r23, 0x02EB	; 0x8002eb <_ZZN8ENC28J6013packetReceiveEvE14gNextPacketPtr+0x1>
     cc4:	61 15       	cp	r22, r1
     cc6:	71 05       	cpc	r23, r1
     cc8:	29 f4       	brne	.+10     	; 0xcd4 <_ZN8ENC28J6013packetReceiveEv+0x30>
            writeReg(ERXRDPT, RXSTOP_INIT);
     cca:	6f ef       	ldi	r22, 0xFF	; 255
     ccc:	7b e0       	ldi	r23, 0x0B	; 11
     cce:	8c e0       	ldi	r24, 0x0C	; 12
     cd0:	d5 de       	rcall	.-598    	; 0xa7c <_ZL8writeReghj>
     cd2:	04 c0       	rjmp	.+8      	; 0xcdc <_ZN8ENC28J6013packetReceiveEv+0x38>
        else
            writeReg(ERXRDPT, gNextPacketPtr - 1);
     cd4:	61 50       	subi	r22, 0x01	; 1
     cd6:	71 09       	sbc	r23, r1
     cd8:	8c e0       	ldi	r24, 0x0C	; 12
     cda:	d0 de       	rcall	.-608    	; 0xa7c <_ZL8writeReghj>
        unreleasedPacket = false;
     cdc:	10 92 ec 02 	sts	0x02EC, r1	; 0x8002ec <_ZZN8ENC28J6013packetReceiveEvE16unreleasedPacket>
    }

    if (readRegByte(EPKTCNT) > 0) {
     ce0:	89 e3       	ldi	r24, 0x39	; 57
     ce2:	ae de       	rcall	.-676    	; 0xa40 <_ZL11readRegByteh>
     ce4:	88 23       	and	r24, r24
     ce6:	a9 f1       	breq	.+106    	; 0xd52 <_ZN8ENC28J6013packetReceiveEv+0xae>
        writeReg(ERDPT, gNextPacketPtr);
     ce8:	60 91 ea 02 	lds	r22, 0x02EA	; 0x8002ea <_ZZN8ENC28J6013packetReceiveEvE14gNextPacketPtr>
     cec:	70 91 eb 02 	lds	r23, 0x02EB	; 0x8002eb <_ZZN8ENC28J6013packetReceiveEvE14gNextPacketPtr+0x1>
     cf0:	80 e0       	ldi	r24, 0x00	; 0
     cf2:	c4 de       	rcall	.-632    	; 0xa7c <_ZL8writeReghj>
            uint16_t nextPacket;
            uint16_t byteCount;
            uint16_t status;
        } header;

        readBuf(sizeof header, (uint8_t*) &header);
     cf4:	be 01       	movw	r22, r28
     cf6:	6f 5f       	subi	r22, 0xFF	; 255
     cf8:	7f 4f       	sbci	r23, 0xFF	; 255
     cfa:	86 e0       	ldi	r24, 0x06	; 6
     cfc:	90 e0       	ldi	r25, 0x00	; 0
     cfe:	2d de       	rcall	.-934    	; 0x95a <_ZL7readBufjPh>

        gNextPacketPtr  = header.nextPacket;
     d00:	89 81       	ldd	r24, Y+1	; 0x01
     d02:	9a 81       	ldd	r25, Y+2	; 0x02
     d04:	90 93 eb 02 	sts	0x02EB, r25	; 0x8002eb <_ZZN8ENC28J6013packetReceiveEvE14gNextPacketPtr+0x1>
     d08:	80 93 ea 02 	sts	0x02EA, r24	; 0x8002ea <_ZZN8ENC28J6013packetReceiveEvE14gNextPacketPtr>
        len = header.byteCount - 4; //remove the CRC count
        if (len>bufferSize-1)
            len=bufferSize-1;
        if ((header.status & 0x80)==0)
     d0c:	8d 81       	ldd	r24, Y+5	; 0x05
     d0e:	87 ff       	sbrs	r24, 7
     d10:	12 c0       	rjmp	.+36     	; 0xd36 <_ZN8ENC28J6013packetReceiveEv+0x92>

        readBuf(sizeof header, (uint8_t*) &header);

        gNextPacketPtr  = header.nextPacket;
        len = header.byteCount - 4; //remove the CRC count
        if (len>bufferSize-1)
     d12:	80 91 f1 02 	lds	r24, 0x02F1	; 0x8002f1 <_ZN8ENC28J6010bufferSizeE>
     d16:	90 91 f2 02 	lds	r25, 0x02F2	; 0x8002f2 <_ZN8ENC28J6010bufferSizeE+0x1>
     d1a:	01 97       	sbiw	r24, 0x01	; 1
        } header;

        readBuf(sizeof header, (uint8_t*) &header);

        gNextPacketPtr  = header.nextPacket;
        len = header.byteCount - 4; //remove the CRC count
     d1c:	0b 81       	ldd	r16, Y+3	; 0x03
     d1e:	1c 81       	ldd	r17, Y+4	; 0x04
     d20:	04 50       	subi	r16, 0x04	; 4
     d22:	11 09       	sbc	r17, r1
     d24:	80 17       	cp	r24, r16
     d26:	91 07       	cpc	r25, r17
     d28:	08 f4       	brcc	.+2      	; 0xd2c <_ZN8ENC28J6013packetReceiveEv+0x88>
        if (len>bufferSize-1)
            len=bufferSize-1;
        if ((header.status & 0x80)==0)
            len = 0;
        else
            readBuf(len, buffer);
     d2a:	8c 01       	movw	r16, r24
     d2c:	63 ef       	ldi	r22, 0xF3	; 243
     d2e:	72 e0       	ldi	r23, 0x02	; 2
     d30:	c8 01       	movw	r24, r16
     d32:	13 de       	rcall	.-986    	; 0x95a <_ZL7readBufjPh>
     d34:	02 c0       	rjmp	.+4      	; 0xd3a <_ZN8ENC28J6013packetReceiveEv+0x96>
        gNextPacketPtr  = header.nextPacket;
        len = header.byteCount - 4; //remove the CRC count
        if (len>bufferSize-1)
            len=bufferSize-1;
        if ((header.status & 0x80)==0)
            len = 0;
     d36:	00 e0       	ldi	r16, 0x00	; 0
     d38:	10 e0       	ldi	r17, 0x00	; 0
        else
            readBuf(len, buffer);
        buffer[len] = 0;
     d3a:	f8 01       	movw	r30, r16
     d3c:	ed 50       	subi	r30, 0x0D	; 13
     d3e:	fd 4f       	sbci	r31, 0xFD	; 253
     d40:	10 82       	st	Z, r1
        unreleasedPacket = true;
     d42:	81 e0       	ldi	r24, 0x01	; 1
     d44:	80 93 ec 02 	sts	0x02EC, r24	; 0x8002ec <_ZZN8ENC28J6013packetReceiveEvE16unreleasedPacket>

        writeOp(ENC28J60_BIT_FIELD_SET, ECON2, ECON2_PKTDEC);
     d48:	40 e4       	ldi	r20, 0x40	; 64
     d4a:	6e e1       	ldi	r22, 0x1E	; 30
     d4c:	80 e8       	ldi	r24, 0x80	; 128
     d4e:	f3 dd       	rcall	.-1050   	; 0x936 <_ZL7writeOphhh>
     d50:	02 c0       	rjmp	.+4      	; 0xd56 <_ZN8ENC28J6013packetReceiveEv+0xb2>


uint16_t ENC28J60::packetReceive() {
    static uint16_t gNextPacketPtr = RXSTART_INIT;
    static bool     unreleasedPacket = false;
    uint16_t len = 0;
     d52:	00 e0       	ldi	r16, 0x00	; 0
     d54:	10 e0       	ldi	r17, 0x00	; 0
        unreleasedPacket = true;

        writeOp(ENC28J60_BIT_FIELD_SET, ECON2, ECON2_PKTDEC);
    }
    return len;
}
     d56:	c8 01       	movw	r24, r16
     d58:	26 96       	adiw	r28, 0x06	; 6
     d5a:	0f b6       	in	r0, 0x3f	; 63
     d5c:	f8 94       	cli
     d5e:	de bf       	out	0x3e, r29	; 62
     d60:	0f be       	out	0x3f, r0	; 63
     d62:	cd bf       	out	0x3d, r28	; 61
     d64:	df 91       	pop	r29
     d66:	cf 91       	pop	r28
     d68:	1f 91       	pop	r17
     d6a:	0f 91       	pop	r16
     d6c:	08 95       	ret

00000d6e <_ZN9EtherCard5beginEPKhRVhS3_h>:
uint16_t EtherCard::delaycnt = 0; //request gateway ARP lookup

uint8_t Ethernet::buffer[ETHER_CARD_BUFFER_SIZE]; // tcp/ip send and receive buffer

uint8_t EtherCard::begin (const uint8_t* macaddr,
                          Register& csDDR, Register& csPort, uint8_t csPin) {
     d6e:	ef 92       	push	r14
     d70:	ff 92       	push	r15
     d72:	0f 93       	push	r16
     d74:	cf 93       	push	r28
     d76:	df 93       	push	r29
     d78:	eb 01       	movw	r28, r22
     d7a:	7a 01       	movw	r14, r20
     d7c:	02 2f       	mov	r16, r18

    copyMac(mymac, macaddr);
     d7e:	bc 01       	movw	r22, r24
     d80:	8d e0       	ldi	r24, 0x0D	; 13
     d82:	95 e0       	ldi	r25, 0x05	; 5
     d84:	96 d3       	rcall	.+1836   	; 0x14b2 <_ZN9EtherCard7copyMacEPhPKh>
    return initialize(ETHER_CARD_BUFFER_SIZE, mymac, csDDR, csPort, csPin);
     d86:	97 01       	movw	r18, r14
     d88:	ae 01       	movw	r20, r28
     d8a:	6d e0       	ldi	r22, 0x0D	; 13
     d8c:	75 e0       	ldi	r23, 0x05	; 5
     d8e:	80 e0       	ldi	r24, 0x00	; 0
     d90:	92 e0       	ldi	r25, 0x02	; 2
     d92:	9e de       	rcall	.-708    	; 0xad0 <_ZN8ENC28J6010initializeEjPKhRVhS3_h>
}
     d94:	df 91       	pop	r29
     d96:	cf 91       	pop	r28
     d98:	0f 91       	pop	r16
     d9a:	ff 90       	pop	r15
     d9c:	ef 90       	pop	r14
     d9e:	08 95       	ret

00000da0 <_ZN9EtherCard11staticSetupEPKhS1_S1_S1_>:

bool EtherCard::staticSetup (const uint8_t* my_ip,
                             const uint8_t* gw_ip,
                             const uint8_t* dns_ip,
                             const uint8_t* mask) {
     da0:	ef 92       	push	r14
     da2:	ff 92       	push	r15
     da4:	0f 93       	push	r16
     da6:	1f 93       	push	r17
     da8:	cf 93       	push	r28
     daa:	df 93       	push	r29
     dac:	7b 01       	movw	r14, r22
     dae:	8a 01       	movw	r16, r20
     db0:	e9 01       	movw	r28, r18

    if (my_ip != 0)
     db2:	00 97       	sbiw	r24, 0x00	; 0
     db4:	21 f0       	breq	.+8      	; 0xdbe <_ZN9EtherCard11staticSetupEPKhS1_S1_S1_+0x1e>
        copyIp(myip, my_ip);
     db6:	bc 01       	movw	r22, r24
     db8:	89 e0       	ldi	r24, 0x09	; 9
     dba:	95 e0       	ldi	r25, 0x05	; 5
     dbc:	6d d3       	rcall	.+1754   	; 0x1498 <_ZN9EtherCard6copyIpEPhPKh>
    if (gw_ip != 0)
     dbe:	e1 14       	cp	r14, r1
     dc0:	f1 04       	cpc	r15, r1
     dc2:	11 f0       	breq	.+4      	; 0xdc8 <_ZN9EtherCard11staticSetupEPKhS1_S1_S1_+0x28>
        setGwIp(gw_ip);
     dc4:	c7 01       	movw	r24, r14
     dc6:	ae d1       	rcall	.+860    	; 0x1124 <_ZN9EtherCard7setGwIpEPKh>
    if (dns_ip != 0)
     dc8:	01 15       	cp	r16, r1
     dca:	11 05       	cpc	r17, r1
     dcc:	21 f0       	breq	.+8      	; 0xdd6 <_ZN9EtherCard11staticSetupEPKhS1_S1_S1_+0x36>
        copyIp(dnsip, dns_ip);
     dce:	b8 01       	movw	r22, r16
     dd0:	89 ef       	ldi	r24, 0xF9	; 249
     dd2:	94 e0       	ldi	r25, 0x04	; 4
     dd4:	61 d3       	rcall	.+1730   	; 0x1498 <_ZN9EtherCard6copyIpEPhPKh>
    if(mask != 0)
     dd6:	20 97       	sbiw	r28, 0x00	; 0
     dd8:	21 f0       	breq	.+8      	; 0xde2 <_ZN9EtherCard11staticSetupEPKhS1_S1_S1_+0x42>
        copyIp(netmask, mask);
     dda:	be 01       	movw	r22, r28
     ddc:	85 e0       	ldi	r24, 0x05	; 5
     dde:	95 e0       	ldi	r25, 0x05	; 5
    updateBroadcastAddress();
     de0:	5b d3       	rcall	.+1718   	; 0x1498 <_ZN9EtherCard6copyIpEPhPKh>
     de2:	ac d1       	rcall	.+856    	; 0x113c <_ZN9EtherCard22updateBroadcastAddressEv>
    delaycnt = 0; //request gateway ARP lookup
     de4:	10 92 f4 04 	sts	0x04F4, r1	; 0x8004f4 <_ZN9EtherCard8delaycntE+0x1>
     de8:	10 92 f3 04 	sts	0x04F3, r1	; 0x8004f3 <_ZN9EtherCard8delaycntE>
    return true;
}
     dec:	81 e0       	ldi	r24, 0x01	; 1
     dee:	df 91       	pop	r29
     df0:	cf 91       	pop	r28
     df2:	1f 91       	pop	r17
     df4:	0f 91       	pop	r16
     df6:	ff 90       	pop	r15
     df8:	ef 90       	pop	r14
     dfa:	08 95       	ret

00000dfc <_ZL13fill_checksumhhjh>:
{
    for(uint8_t i=0; i<IP_LEN; i++)
        broadcastip[i] = myip[i] | ~netmask[i];
}

void EtherCard::registerPingCallback (void (*callback)(uint8_t *srcip)) {
     dfc:	cf 92       	push	r12
     dfe:	df 92       	push	r13
     e00:	ef 92       	push	r14
     e02:	ff 92       	push	r15
     e04:	cf 93       	push	r28
     e06:	df 93       	push	r29
     e08:	c6 2f       	mov	r28, r22
     e0a:	d0 e0       	ldi	r29, 0x00	; 0
     e0c:	cd 50       	subi	r28, 0x0D	; 13
     e0e:	dd 4f       	sbci	r29, 0xFD	; 253
     e10:	21 30       	cpi	r18, 0x01	; 1
     e12:	81 f4       	brne	.+32     	; 0xe34 <_ZL13fill_checksumhhjh+0x38>
     e14:	6a 01       	movw	r12, r20
     e16:	99 e0       	ldi	r25, 0x09	; 9
     e18:	c9 0e       	add	r12, r25
     e1a:	d1 1c       	adc	r13, r1
     e1c:	e1 2c       	mov	r14, r1
     e1e:	f1 2c       	mov	r15, r1
     e20:	03 c0       	rjmp	.+6      	; 0xe28 <_ZL13fill_checksumhhjh+0x2c>
     e22:	c1 2c       	mov	r12, r1
     e24:	d1 2c       	mov	r13, r1
     e26:	76 01       	movw	r14, r12
     e28:	42 30       	cpi	r20, 0x02	; 2
     e2a:	51 05       	cpc	r21, r1
     e2c:	28 f1       	brcs	.+74     	; 0xe78 <_ZL13fill_checksumhhjh+0x7c>
     e2e:	fe 01       	movw	r30, r28
     e30:	da 01       	movw	r26, r20
     e32:	09 c0       	rjmp	.+18     	; 0xe46 <_ZL13fill_checksumhhjh+0x4a>
     e34:	22 30       	cpi	r18, 0x02	; 2
     e36:	a9 f7       	brne	.-22     	; 0xe22 <_ZL13fill_checksumhhjh+0x26>
     e38:	6a 01       	movw	r12, r20
     e3a:	92 e0       	ldi	r25, 0x02	; 2
     e3c:	c9 1a       	sub	r12, r25
     e3e:	d1 08       	sbc	r13, r1
     e40:	e1 2c       	mov	r14, r1
     e42:	f1 2c       	mov	r15, r1
     e44:	f1 cf       	rjmp	.-30     	; 0xe28 <_ZL13fill_checksumhhjh+0x2c>
     e46:	20 81       	ld	r18, Z
     e48:	30 e0       	ldi	r19, 0x00	; 0
     e4a:	32 2f       	mov	r19, r18
     e4c:	22 27       	eor	r18, r18
     e4e:	91 81       	ldd	r25, Z+1	; 0x01
     e50:	29 2b       	or	r18, r25
     e52:	c2 0e       	add	r12, r18
     e54:	d3 1e       	adc	r13, r19
     e56:	e1 1c       	adc	r14, r1
     e58:	f1 1c       	adc	r15, r1
     e5a:	32 96       	adiw	r30, 0x02	; 2
     e5c:	12 97       	sbiw	r26, 0x02	; 2
     e5e:	a2 30       	cpi	r26, 0x02	; 2
     e60:	b1 05       	cpc	r27, r1
     e62:	88 f7       	brcc	.-30     	; 0xe46 <_ZL13fill_checksumhhjh+0x4a>
     e64:	9a 01       	movw	r18, r20
     e66:	22 50       	subi	r18, 0x02	; 2
     e68:	31 09       	sbc	r19, r1
     e6a:	2e 7f       	andi	r18, 0xFE	; 254
     e6c:	2e 5f       	subi	r18, 0xFE	; 254
     e6e:	3f 4f       	sbci	r19, 0xFF	; 255
     e70:	c2 0f       	add	r28, r18
     e72:	d3 1f       	adc	r29, r19
     e74:	41 70       	andi	r20, 0x01	; 1
     e76:	55 27       	eor	r21, r21
     e78:	45 2b       	or	r20, r21
     e7a:	61 f0       	breq	.+24     	; 0xe94 <_ZL13fill_checksumhhjh+0x98>
     e7c:	48 81       	ld	r20, Y
     e7e:	50 e0       	ldi	r21, 0x00	; 0
     e80:	60 e0       	ldi	r22, 0x00	; 0
     e82:	70 e0       	ldi	r23, 0x00	; 0
     e84:	76 2f       	mov	r23, r22
     e86:	65 2f       	mov	r22, r21
     e88:	54 2f       	mov	r21, r20
     e8a:	44 27       	eor	r20, r20
     e8c:	c4 0e       	add	r12, r20
     e8e:	d5 1e       	adc	r13, r21
     e90:	e6 1e       	adc	r14, r22
     e92:	f7 1e       	adc	r15, r23
     e94:	a7 01       	movw	r20, r14
     e96:	66 27       	eor	r22, r22
     e98:	77 27       	eor	r23, r23
     e9a:	41 15       	cp	r20, r1
     e9c:	51 05       	cpc	r21, r1
     e9e:	61 05       	cpc	r22, r1
     ea0:	71 05       	cpc	r23, r1
     ea2:	71 f0       	breq	.+28     	; 0xec0 <_ZL13fill_checksumhhjh+0xc4>
     ea4:	ee 24       	eor	r14, r14
     ea6:	ff 24       	eor	r15, r15
     ea8:	c4 0e       	add	r12, r20
     eaa:	d5 1e       	adc	r13, r21
     eac:	e6 1e       	adc	r14, r22
     eae:	f7 1e       	adc	r15, r23
     eb0:	a7 01       	movw	r20, r14
     eb2:	66 27       	eor	r22, r22
     eb4:	77 27       	eor	r23, r23
     eb6:	41 15       	cp	r20, r1
     eb8:	51 05       	cpc	r21, r1
     eba:	61 05       	cpc	r22, r1
     ebc:	71 05       	cpc	r23, r1
     ebe:	91 f7       	brne	.-28     	; 0xea4 <_ZL13fill_checksumhhjh+0xa8>
     ec0:	c0 94       	com	r12
     ec2:	d0 94       	com	r13
     ec4:	e8 2f       	mov	r30, r24
     ec6:	f0 e0       	ldi	r31, 0x00	; 0
     ec8:	ed 50       	subi	r30, 0x0D	; 13
     eca:	fd 4f       	sbci	r31, 0xFD	; 253
     ecc:	d0 82       	st	Z, r13
     ece:	c1 82       	std	Z+1, r12	; 0x01
     ed0:	df 91       	pop	r29
     ed2:	cf 91       	pop	r28
     ed4:	ff 90       	pop	r15
     ed6:	ef 90       	pop	r14
     ed8:	df 90       	pop	r13
     eda:	cf 90       	pop	r12
     edc:	08 95       	ret

00000ede <_ZL6is_lanPKhS0_>:
     ede:	cf 93       	push	r28
     ee0:	df 93       	push	r29
     ee2:	fc 01       	movw	r30, r24
     ee4:	20 81       	ld	r18, Z
     ee6:	22 23       	and	r18, r18
     ee8:	d1 f0       	breq	.+52     	; 0xf1e <_ZL6is_lanPKhS0_+0x40>
     eea:	fb 01       	movw	r30, r22
     eec:	30 81       	ld	r19, Z
     eee:	33 23       	and	r19, r19
     ef0:	c1 f0       	breq	.+48     	; 0xf22 <_ZL6is_lanPKhS0_+0x44>
     ef2:	23 27       	eor	r18, r19
     ef4:	30 91 05 05 	lds	r19, 0x0505	; 0x800505 <_ZN9EtherCard7netmaskE>
     ef8:	23 23       	and	r18, r19
     efa:	a9 f4       	brne	.+42     	; 0xf26 <_ZL6is_lanPKhS0_+0x48>
     efc:	dc 01       	movw	r26, r24
     efe:	11 96       	adiw	r26, 0x01	; 1
     f00:	31 96       	adiw	r30, 0x01	; 1
     f02:	c6 e0       	ldi	r28, 0x06	; 6
     f04:	d5 e0       	ldi	r29, 0x05	; 5
     f06:	04 96       	adiw	r24, 0x04	; 4
     f08:	4d 91       	ld	r20, X+
     f0a:	21 91       	ld	r18, Z+
     f0c:	39 91       	ld	r19, Y+
     f0e:	24 27       	eor	r18, r20
     f10:	23 23       	and	r18, r19
     f12:	59 f4       	brne	.+22     	; 0xf2a <_ZL6is_lanPKhS0_+0x4c>
     f14:	a8 17       	cp	r26, r24
     f16:	b9 07       	cpc	r27, r25
     f18:	b9 f7       	brne	.-18     	; 0xf08 <_ZL6is_lanPKhS0_+0x2a>
     f1a:	81 e0       	ldi	r24, 0x01	; 1
     f1c:	07 c0       	rjmp	.+14     	; 0xf2c <_ZL6is_lanPKhS0_+0x4e>
     f1e:	80 e0       	ldi	r24, 0x00	; 0
     f20:	05 c0       	rjmp	.+10     	; 0xf2c <_ZL6is_lanPKhS0_+0x4e>
     f22:	80 e0       	ldi	r24, 0x00	; 0
     f24:	03 c0       	rjmp	.+6      	; 0xf2c <_ZL6is_lanPKhS0_+0x4e>
     f26:	80 e0       	ldi	r24, 0x00	; 0
     f28:	01 c0       	rjmp	.+2      	; 0xf2c <_ZL6is_lanPKhS0_+0x4e>
     f2a:	80 e0       	ldi	r24, 0x00	; 0
     f2c:	df 91       	pop	r29
     f2e:	cf 91       	pop	r28
     f30:	08 95       	ret

00000f32 <_ZL20fill_ip_hdr_checksumv>:
     f32:	e3 ef       	ldi	r30, 0xF3	; 243
     f34:	f2 e0       	ldi	r31, 0x02	; 2
     f36:	10 8e       	std	Z+24, r1	; 0x18
     f38:	11 8e       	std	Z+25, r1	; 0x19
     f3a:	80 e4       	ldi	r24, 0x40	; 64
     f3c:	84 8b       	std	Z+20, r24	; 0x14
     f3e:	15 8a       	std	Z+21, r1	; 0x15
     f40:	86 8b       	std	Z+22, r24	; 0x16
     f42:	20 e0       	ldi	r18, 0x00	; 0
     f44:	44 e1       	ldi	r20, 0x14	; 20
     f46:	50 e0       	ldi	r21, 0x00	; 0
     f48:	6e e0       	ldi	r22, 0x0E	; 14
     f4a:	88 e1       	ldi	r24, 0x18	; 24
     f4c:	57 cf       	rjmp	.-338    	; 0xdfc <_ZL13fill_checksumhhjh>
     f4e:	08 95       	ret

00000f50 <_ZL7setMACsPKh>:
     f50:	bc 01       	movw	r22, r24
     f52:	83 ef       	ldi	r24, 0xF3	; 243
     f54:	92 e0       	ldi	r25, 0x02	; 2
     f56:	ad d2       	rcall	.+1370   	; 0x14b2 <_ZN9EtherCard7copyMacEPhPKh>
     f58:	6d e0       	ldi	r22, 0x0D	; 13
     f5a:	75 e0       	ldi	r23, 0x05	; 5
     f5c:	89 ef       	ldi	r24, 0xF9	; 249
     f5e:	92 e0       	ldi	r25, 0x02	; 2
     f60:	a8 c2       	rjmp	.+1360   	; 0x14b2 <_ZN9EtherCard7copyMacEPhPKh>
     f62:	08 95       	ret

00000f64 <_ZL12setMACandIPsPKhS0_>:
     f64:	cf 93       	push	r28
     f66:	df 93       	push	r29
     f68:	eb 01       	movw	r28, r22
     f6a:	f2 df       	rcall	.-28     	; 0xf50 <_ZL7setMACsPKh>
     f6c:	be 01       	movw	r22, r28
     f6e:	81 e1       	ldi	r24, 0x11	; 17
     f70:	93 e0       	ldi	r25, 0x03	; 3
     f72:	92 d2       	rcall	.+1316   	; 0x1498 <_ZN9EtherCard6copyIpEPhPKh>
     f74:	69 e0       	ldi	r22, 0x09	; 9
     f76:	75 e0       	ldi	r23, 0x05	; 5
     f78:	8d e0       	ldi	r24, 0x0D	; 13
     f7a:	93 e0       	ldi	r25, 0x03	; 3
     f7c:	8d d2       	rcall	.+1306   	; 0x1498 <_ZN9EtherCard6copyIpEPhPKh>
     f7e:	df 91       	pop	r29
     f80:	cf 91       	pop	r28
     f82:	08 95       	ret

00000f84 <_ZL16client_store_macPhS_>:
     f84:	cf 93       	push	r28
     f86:	df 93       	push	r29
     f88:	eb 01       	movw	r28, r22
     f8a:	44 e0       	ldi	r20, 0x04	; 4
     f8c:	50 e0       	ldi	r21, 0x00	; 0
     f8e:	bc 01       	movw	r22, r24
     f90:	8f e0       	ldi	r24, 0x0F	; 15
     f92:	93 e0       	ldi	r25, 0x03	; 3
     f94:	0e 94 29 14 	call	0x2852	; 0x2852 <memcmp>
     f98:	89 2b       	or	r24, r25
     f9a:	31 f4       	brne	.+12     	; 0xfa8 <_ZL16client_store_macPhS_+0x24>
     f9c:	69 e0       	ldi	r22, 0x09	; 9
     f9e:	73 e0       	ldi	r23, 0x03	; 3
     fa0:	ce 01       	movw	r24, r28
     fa2:	87 d2       	rcall	.+1294   	; 0x14b2 <_ZN9EtherCard7copyMacEPhPKh>
     fa4:	81 e0       	ldi	r24, 0x01	; 1
     fa6:	01 c0       	rjmp	.+2      	; 0xfaa <_ZL16client_store_macPhS_+0x26>
     fa8:	80 e0       	ldi	r24, 0x00	; 0
     faa:	df 91       	pop	r29
     fac:	cf 91       	pop	r28
     fae:	08 95       	ret

00000fb0 <_ZL17client_arp_whohasPh>:
     fb0:	0f 93       	push	r16
     fb2:	1f 93       	push	r17
     fb4:	cf 93       	push	r28
     fb6:	8c 01       	movw	r16, r24
     fb8:	85 e2       	ldi	r24, 0x25	; 37
     fba:	92 e0       	ldi	r25, 0x02	; 2
     fbc:	c9 df       	rcall	.-110    	; 0xf50 <_ZL7setMACsPKh>
     fbe:	e3 ef       	ldi	r30, 0xF3	; 243
     fc0:	f2 e0       	ldi	r31, 0x02	; 2
     fc2:	88 e0       	ldi	r24, 0x08	; 8
     fc4:	84 87       	std	Z+12, r24	; 0x0c
     fc6:	c6 e0       	ldi	r28, 0x06	; 6
     fc8:	c5 87       	std	Z+13, r28	; 0x0d
     fca:	48 e0       	ldi	r20, 0x08	; 8
     fcc:	50 e0       	ldi	r21, 0x00	; 0
     fce:	6f e7       	ldi	r22, 0x7F	; 127
     fd0:	72 e0       	ldi	r23, 0x02	; 2
     fd2:	81 e0       	ldi	r24, 0x01	; 1
     fd4:	93 e0       	ldi	r25, 0x03	; 3
     fd6:	0e 94 20 14 	call	0x2840	; 0x2840 <memcpy_P>
     fda:	e3 e1       	ldi	r30, 0x13	; 19
     fdc:	f3 e0       	ldi	r31, 0x03	; 3
     fde:	df 01       	movw	r26, r30
     fe0:	1d 92       	st	X+, r1
     fe2:	ca 95       	dec	r28
     fe4:	e9 f7       	brne	.-6      	; 0xfe0 <_ZL17client_arp_whohasPh+0x30>
     fe6:	6d e0       	ldi	r22, 0x0D	; 13
     fe8:	75 e0       	ldi	r23, 0x05	; 5
     fea:	89 e0       	ldi	r24, 0x09	; 9
     fec:	93 e0       	ldi	r25, 0x03	; 3
     fee:	61 d2       	rcall	.+1218   	; 0x14b2 <_ZN9EtherCard7copyMacEPhPKh>
     ff0:	b8 01       	movw	r22, r16
     ff2:	89 e1       	ldi	r24, 0x19	; 25
     ff4:	93 e0       	ldi	r25, 0x03	; 3
     ff6:	50 d2       	rcall	.+1184   	; 0x1498 <_ZN9EtherCard6copyIpEPhPKh>
     ff8:	69 e0       	ldi	r22, 0x09	; 9
     ffa:	75 e0       	ldi	r23, 0x05	; 5
     ffc:	8f e0       	ldi	r24, 0x0F	; 15
     ffe:	93 e0       	ldi	r25, 0x03	; 3
    1000:	4b d2       	rcall	.+1174   	; 0x1498 <_ZN9EtherCard6copyIpEPhPKh>
    1002:	8a e2       	ldi	r24, 0x2A	; 42
    1004:	90 e0       	ldi	r25, 0x00	; 0
    1006:	0d de       	rcall	.-998    	; 0xc22 <_ZN8ENC28J6010packetSendEj>
    1008:	cf 91       	pop	r28
    100a:	1f 91       	pop	r17
    100c:	0f 91       	pop	r16
    100e:	08 95       	ret

00001010 <_ZN9EtherCard10udpPrepareEjPKhj>:
    1010:	ef 92       	push	r14
    1012:	ff 92       	push	r15
    1014:	0f 93       	push	r16
    1016:	1f 93       	push	r17
    1018:	cf 93       	push	r28
    101a:	df 93       	push	r29
    101c:	18 2f       	mov	r17, r24
    101e:	09 2f       	mov	r16, r25
    1020:	eb 01       	movw	r28, r22
    1022:	f4 2e       	mov	r15, r20
    1024:	e5 2e       	mov	r14, r21
    1026:	89 e0       	ldi	r24, 0x09	; 9
    1028:	95 e0       	ldi	r25, 0x05	; 5
    102a:	59 df       	rcall	.-334    	; 0xede <_ZL6is_lanPKhS0_>
    102c:	88 23       	and	r24, r24
    102e:	29 f0       	breq	.+10     	; 0x103a <_ZN9EtherCard10udpPrepareEjPKhj+0x2a>
    1030:	be 01       	movw	r22, r28
    1032:	8e e1       	ldi	r24, 0x1E	; 30
    1034:	95 e0       	ldi	r25, 0x05	; 5
    1036:	96 df       	rcall	.-212    	; 0xf64 <_ZL12setMACandIPsPKhS0_>
    1038:	04 c0       	rjmp	.+8      	; 0x1042 <_ZN9EtherCard10udpPrepareEjPKhj+0x32>
    103a:	be 01       	movw	r22, r28
    103c:	84 e1       	ldi	r24, 0x14	; 20
    103e:	95 e0       	ldi	r25, 0x05	; 5
    1040:	91 df       	rcall	.-222    	; 0xf64 <_ZL12setMACandIPsPKhS0_>
    1042:	88 81       	ld	r24, Y
    1044:	80 7f       	andi	r24, 0xF0	; 240
    1046:	80 3e       	cpi	r24, 0xE0	; 224
    1048:	91 f0       	breq	.+36     	; 0x106e <_ZN9EtherCard10udpPrepareEjPKhj+0x5e>
    104a:	88 81       	ld	r24, Y
    104c:	99 81       	ldd	r25, Y+1	; 0x01
    104e:	aa 81       	ldd	r26, Y+2	; 0x02
    1050:	bb 81       	ldd	r27, Y+3	; 0x03
    1052:	8f 3f       	cpi	r24, 0xFF	; 255
    1054:	9f 4f       	sbci	r25, 0xFF	; 255
    1056:	af 4f       	sbci	r26, 0xFF	; 255
    1058:	bf 4f       	sbci	r27, 0xFF	; 255
    105a:	49 f0       	breq	.+18     	; 0x106e <_ZN9EtherCard10udpPrepareEjPKhj+0x5e>
    105c:	44 e0       	ldi	r20, 0x04	; 4
    105e:	50 e0       	ldi	r21, 0x00	; 0
    1060:	be 01       	movw	r22, r28
    1062:	81 e0       	ldi	r24, 0x01	; 1
    1064:	95 e0       	ldi	r25, 0x05	; 5
    1066:	0e 94 29 14 	call	0x2852	; 0x2852 <memcmp>
    106a:	89 2b       	or	r24, r25
    106c:	29 f4       	brne	.+10     	; 0x1078 <_ZN9EtherCard10udpPrepareEjPKhj+0x68>
    106e:	65 e2       	ldi	r22, 0x25	; 37
    1070:	72 e0       	ldi	r23, 0x02	; 2
    1072:	83 ef       	ldi	r24, 0xF3	; 243
    1074:	92 e0       	ldi	r25, 0x02	; 2
    1076:	1d d2       	rcall	.+1082   	; 0x14b2 <_ZN9EtherCard7copyMacEPhPKh>
    1078:	c3 ef       	ldi	r28, 0xF3	; 243
    107a:	d2 e0       	ldi	r29, 0x02	; 2
    107c:	88 e0       	ldi	r24, 0x08	; 8
    107e:	8c 87       	std	Y+12, r24	; 0x0c
    1080:	1d 86       	std	Y+13, r1	; 0x0d
    1082:	49 e0       	ldi	r20, 0x09	; 9
    1084:	50 e0       	ldi	r21, 0x00	; 0
    1086:	66 e7       	ldi	r22, 0x76	; 118
    1088:	72 e0       	ldi	r23, 0x02	; 2
    108a:	81 e0       	ldi	r24, 0x01	; 1
    108c:	93 e0       	ldi	r25, 0x03	; 3
    108e:	0e 94 20 14 	call	0x2840	; 0x2840 <memcpy_P>
    1092:	18 8a       	std	Y+16, r1	; 0x10
    1094:	81 e1       	ldi	r24, 0x11	; 17
    1096:	8f 8b       	std	Y+23, r24	; 0x17
    1098:	ec a2       	std	Y+36, r14	; 0x24
    109a:	fd a2       	std	Y+37, r15	; 0x25
    109c:	0a a3       	std	Y+34, r16	; 0x22
    109e:	1b a3       	std	Y+35, r17	; 0x23
    10a0:	1e a2       	std	Y+38, r1	; 0x26
    10a2:	18 a6       	std	Y+40, r1	; 0x28
    10a4:	19 a6       	std	Y+41, r1	; 0x29
    10a6:	df 91       	pop	r29
    10a8:	cf 91       	pop	r28
    10aa:	1f 91       	pop	r17
    10ac:	0f 91       	pop	r16
    10ae:	ff 90       	pop	r15
    10b0:	ef 90       	pop	r14
    10b2:	08 95       	ret

000010b4 <_ZN9EtherCard11udpTransmitEj>:
    10b4:	0f 93       	push	r16
    10b6:	1f 93       	push	r17
    10b8:	cf 93       	push	r28
    10ba:	df 93       	push	r29
    10bc:	ec 01       	movw	r28, r24
    10be:	03 ef       	ldi	r16, 0xF3	; 243
    10c0:	12 e0       	ldi	r17, 0x02	; 2
    10c2:	4c 96       	adiw	r24, 0x1c	; 28
    10c4:	f8 01       	movw	r30, r16
    10c6:	90 8b       	std	Z+16, r25	; 0x10
    10c8:	81 8b       	std	Z+17, r24	; 0x11
    10ca:	33 df       	rcall	.-410    	; 0xf32 <_ZL20fill_ip_hdr_checksumv>
    10cc:	ce 01       	movw	r24, r28
    10ce:	08 96       	adiw	r24, 0x08	; 8
    10d0:	f8 01       	movw	r30, r16
    10d2:	96 a3       	std	Z+38, r25	; 0x26
    10d4:	87 a3       	std	Z+39, r24	; 0x27
    10d6:	ae 01       	movw	r20, r28
    10d8:	40 5f       	subi	r20, 0xF0	; 240
    10da:	5f 4f       	sbci	r21, 0xFF	; 255
    10dc:	21 e0       	ldi	r18, 0x01	; 1
    10de:	6a e1       	ldi	r22, 0x1A	; 26
    10e0:	88 e2       	ldi	r24, 0x28	; 40
    10e2:	8c de       	rcall	.-744    	; 0xdfc <_ZL13fill_checksumhhjh>
    10e4:	ce 01       	movw	r24, r28
    10e6:	8a 96       	adiw	r24, 0x2a	; 42
    10e8:	9c dd       	rcall	.-1224   	; 0xc22 <_ZN8ENC28J6010packetSendEj>
    10ea:	df 91       	pop	r29
    10ec:	cf 91       	pop	r28
    10ee:	1f 91       	pop	r17
    10f0:	0f 91       	pop	r16
    10f2:	08 95       	ret

000010f4 <_ZN9EtherCard7sendUdpEPKhjjS1_j>:
    10f4:	0f 93       	push	r16
    10f6:	1f 93       	push	r17
    10f8:	cf 93       	push	r28
    10fa:	df 93       	push	r29
    10fc:	d6 2f       	mov	r29, r22
    10fe:	c7 2f       	mov	r28, r23
    1100:	ca 01       	movw	r24, r20
    1102:	a8 01       	movw	r20, r16
    1104:	b9 01       	movw	r22, r18
    1106:	84 df       	rcall	.-248    	; 0x1010 <_ZN9EtherCard10udpPrepareEjPKhj>
    1108:	8d 2f       	mov	r24, r29
    110a:	9c 2f       	mov	r25, r28
    110c:	81 30       	cpi	r24, 0x01	; 1
    110e:	22 e0       	ldi	r18, 0x02	; 2
    1110:	92 07       	cpc	r25, r18
    1112:	10 f0       	brcs	.+4      	; 0x1118 <_ZN9EtherCard7sendUdpEPKhjjS1_j+0x24>
    1114:	80 e0       	ldi	r24, 0x00	; 0
    1116:	92 e0       	ldi	r25, 0x02	; 2
    1118:	cd df       	rcall	.-102    	; 0x10b4 <_ZN9EtherCard11udpTransmitEj>
    111a:	df 91       	pop	r29
    111c:	cf 91       	pop	r28
    111e:	1f 91       	pop	r17
    1120:	0f 91       	pop	r16
    1122:	08 95       	ret

00001124 <_ZN9EtherCard7setGwIpEPKh>:
    1124:	10 92 f4 04 	sts	0x04F4, r1	; 0x8004f4 <_ZN9EtherCard8delaycntE+0x1>
    1128:	10 92 f3 04 	sts	0x04F3, r1	; 0x8004f3 <_ZN9EtherCard8delaycntE>
    112c:	21 e0       	ldi	r18, 0x01	; 1
    112e:	20 93 13 05 	sts	0x0513, r18	; 0x800513 <_ZL9waitgwmac>
    1132:	bc 01       	movw	r22, r24
    1134:	8d ef       	ldi	r24, 0xFD	; 253
    1136:	94 e0       	ldi	r25, 0x04	; 4
    1138:	af c1       	rjmp	.+862    	; 0x1498 <_ZN9EtherCard6copyIpEPhPKh>
    113a:	08 95       	ret

0000113c <_ZN9EtherCard22updateBroadcastAddressEv>:
    113c:	cf 93       	push	r28
    113e:	df 93       	push	r29
    1140:	e9 e0       	ldi	r30, 0x09	; 9
    1142:	f5 e0       	ldi	r31, 0x05	; 5
    1144:	c5 e0       	ldi	r28, 0x05	; 5
    1146:	d5 e0       	ldi	r29, 0x05	; 5
    1148:	a1 e0       	ldi	r26, 0x01	; 1
    114a:	b5 e0       	ldi	r27, 0x05	; 5
    114c:	2d e0       	ldi	r18, 0x0D	; 13
    114e:	35 e0       	ldi	r19, 0x05	; 5
    1150:	91 91       	ld	r25, Z+
    1152:	89 91       	ld	r24, Y+
    1154:	80 95       	com	r24
    1156:	89 2b       	or	r24, r25
    1158:	8d 93       	st	X+, r24
    115a:	e2 17       	cp	r30, r18
    115c:	f3 07       	cpc	r31, r19
    115e:	c1 f7       	brne	.-16     	; 0x1150 <_ZN9EtherCard22updateBroadcastAddressEv+0x14>
    1160:	df 91       	pop	r29
    1162:	cf 91       	pop	r28
    1164:	08 95       	ret

00001166 <_ZN9EtherCard10packetLoopEj>:
    icmp_cb = callback;
}

uint16_t EtherCard::packetLoop (uint16_t plen) {
    1166:	cf 93       	push	r28
    1168:	df 93       	push	r29
    116a:	ec 01       	movw	r28, r24
    if (plen==0) {
    116c:	00 97       	sbiw	r24, 0x00	; 0
    116e:	09 f0       	breq	.+2      	; 0x1172 <_ZN9EtherCard10packetLoopEj+0xc>
    1170:	3f c0       	rjmp	.+126    	; 0x11f0 <_ZN9EtherCard10packetLoopEj+0x8a>
        //Check every 65536 (no-packet) cycles whether we need to retry ARP request for gateway
        if ((waitgwmac & WGW_INITIAL_ARP || waitgwmac & WGW_REFRESHING) &&
    1172:	80 91 13 05 	lds	r24, 0x0513	; 0x800513 <_ZL9waitgwmac>
    1176:	85 70       	andi	r24, 0x05	; 5
    1178:	89 f0       	breq	.+34     	; 0x119c <_ZN9EtherCard10packetLoopEj+0x36>
    117a:	80 91 f3 04 	lds	r24, 0x04F3	; 0x8004f3 <_ZN9EtherCard8delaycntE>
    117e:	90 91 f4 04 	lds	r25, 0x04F4	; 0x8004f4 <_ZN9EtherCard8delaycntE+0x1>
    1182:	89 2b       	or	r24, r25
    1184:	59 f4       	brne	.+22     	; 0x119c <_ZN9EtherCard10packetLoopEj+0x36>
                delaycnt==0 && isLinkUp()) {
    1186:	3a dd       	rcall	.-1420   	; 0xbfc <_ZN8ENC28J608isLinkUpEv>
}

uint16_t EtherCard::packetLoop (uint16_t plen) {
    if (plen==0) {
        //Check every 65536 (no-packet) cycles whether we need to retry ARP request for gateway
        if ((waitgwmac & WGW_INITIAL_ARP || waitgwmac & WGW_REFRESHING) &&
    1188:	88 23       	and	r24, r24
    118a:	41 f0       	breq	.+16     	; 0x119c <_ZN9EtherCard10packetLoopEj+0x36>
                delaycnt==0 && isLinkUp()) {
            client_arp_whohas(gwip);
    118c:	8d ef       	ldi	r24, 0xFD	; 253
    118e:	94 e0       	ldi	r25, 0x04	; 4
    1190:	0f df       	rcall	.-482    	; 0xfb0 <_ZL17client_arp_whohasPh>
            waitgwmac |= WGW_ACCEPT_ARP_REPLY;
    1192:	80 91 13 05 	lds	r24, 0x0513	; 0x800513 <_ZL9waitgwmac>
    1196:	88 60       	ori	r24, 0x08	; 8
    1198:	80 93 13 05 	sts	0x0513, r24	; 0x800513 <_ZL9waitgwmac>
        }
        delaycnt++;
    119c:	80 91 f3 04 	lds	r24, 0x04F3	; 0x8004f3 <_ZN9EtherCard8delaycntE>
    11a0:	90 91 f4 04 	lds	r25, 0x04F4	; 0x8004f4 <_ZN9EtherCard8delaycntE+0x1>
    11a4:	01 96       	adiw	r24, 0x01	; 1
    11a6:	90 93 f4 04 	sts	0x04F4, r25	; 0x8004f4 <_ZN9EtherCard8delaycntE+0x1>
    11aa:	80 93 f3 04 	sts	0x04F3, r24	; 0x8004f3 <_ZN9EtherCard8delaycntE>

        //!@todo this is trying to find mac only once. Need some timeout to make another call if first one doesn't succeed.
        if(is_lan(myip, dnsip) && !has_dns_mac && !waiting_for_dns_mac) {
    11ae:	69 ef       	ldi	r22, 0xF9	; 249
    11b0:	74 e0       	ldi	r23, 0x04	; 4
    11b2:	89 e0       	ldi	r24, 0x09	; 9
    11b4:	95 e0       	ldi	r25, 0x05	; 5
    11b6:	93 de       	rcall	.-730    	; 0xede <_ZL6is_lanPKhS0_>
    11b8:	88 23       	and	r24, r24
    11ba:	49 f0       	breq	.+18     	; 0x11ce <_ZN9EtherCard10packetLoopEj+0x68>
    11bc:	80 91 1c 05 	lds	r24, 0x051C	; 0x80051c <_ZL11has_dns_mac>
    11c0:	81 11       	cpse	r24, r1
    11c2:	05 c0       	rjmp	.+10     	; 0x11ce <_ZN9EtherCard10packetLoopEj+0x68>
    11c4:	80 91 1d 05 	lds	r24, 0x051D	; 0x80051d <_ZL19waiting_for_dns_mac>
    11c8:	88 23       	and	r24, r24
    11ca:	09 f4       	brne	.+2      	; 0x11ce <_ZN9EtherCard10packetLoopEj+0x68>
    11cc:	b9 c0       	rjmp	.+370    	; 0x1340 <_ZN9EtherCard10packetLoopEj+0x1da>
            client_arp_whohas(dnsip);
            waiting_for_dns_mac = true;
        }

        //!@todo this is trying to find mac only once. Need some timeout to make another call if first one doesn't succeed.
        if(is_lan(myip, hisip) && !has_dest_mac && !waiting_for_dest_mac) {
    11ce:	65 ef       	ldi	r22, 0xF5	; 245
    11d0:	74 e0       	ldi	r23, 0x04	; 4
    11d2:	89 e0       	ldi	r24, 0x09	; 9
    11d4:	95 e0       	ldi	r25, 0x05	; 5
    11d6:	83 de       	rcall	.-762    	; 0xede <_ZL6is_lanPKhS0_>
    11d8:	88 23       	and	r24, r24
    11da:	09 f4       	brne	.+2      	; 0x11de <_ZN9EtherCard10packetLoopEj+0x78>
    11dc:	d4 c0       	rjmp	.+424    	; 0x1386 <_ZN9EtherCard10packetLoopEj+0x220>
    11de:	80 91 1a 05 	lds	r24, 0x051A	; 0x80051a <_ZL12has_dest_mac>
    11e2:	81 11       	cpse	r24, r1
    11e4:	d0 c0       	rjmp	.+416    	; 0x1386 <_ZN9EtherCard10packetLoopEj+0x220>
    11e6:	80 91 1b 05 	lds	r24, 0x051B	; 0x80051b <_ZL20waiting_for_dest_mac>
    11ea:	81 11       	cpse	r24, r1
    11ec:	cc c0       	rjmp	.+408    	; 0x1386 <_ZN9EtherCard10packetLoopEj+0x220>
    11ee:	af c0       	rjmp	.+350    	; 0x134e <_ZN9EtherCard10packetLoopEj+0x1e8>
    return true;
}

static uint8_t eth_type_is_arp_and_my_ip(uint16_t len) {
    return len >= 41 && gPB[ETH_TYPE_H_P] == ETHTYPE_ARP_H_V &&
           gPB[ETH_TYPE_L_P] == ETHTYPE_ARP_L_V &&
    11f0:	89 32       	cpi	r24, 0x29	; 41
    11f2:	91 05       	cpc	r25, r1
    11f4:	08 f4       	brcc	.+2      	; 0x11f8 <_ZN9EtherCard10packetLoopEj+0x92>
    11f6:	b2 c0       	rjmp	.+356    	; 0x135c <_ZN9EtherCard10packetLoopEj+0x1f6>
        }
    return true;
}

static uint8_t eth_type_is_arp_and_my_ip(uint16_t len) {
    return len >= 41 && gPB[ETH_TYPE_H_P] == ETHTYPE_ARP_H_V &&
    11f8:	80 91 ff 02 	lds	r24, 0x02FF	; 0x8002ff <_ZN8ENC28J606bufferE+0xc>
    11fc:	88 30       	cpi	r24, 0x08	; 8
    11fe:	09 f0       	breq	.+2      	; 0x1202 <_ZN9EtherCard10packetLoopEj+0x9c>
    1200:	c2 c0       	rjmp	.+388    	; 0x1386 <_ZN9EtherCard10packetLoopEj+0x220>
    1202:	80 91 00 03 	lds	r24, 0x0300	; 0x800300 <_ZN8ENC28J606bufferE+0xd>
    1206:	86 30       	cpi	r24, 0x06	; 6
    1208:	09 f0       	breq	.+2      	; 0x120c <_ZN9EtherCard10packetLoopEj+0xa6>
    120a:	b9 c0       	rjmp	.+370    	; 0x137e <_ZN9EtherCard10packetLoopEj+0x218>
           gPB[ETH_TYPE_L_P] == ETHTYPE_ARP_L_V &&
           memcmp(gPB + ETH_ARP_DST_IP_P, EtherCard::myip, IP_LEN) == 0;
    120c:	44 e0       	ldi	r20, 0x04	; 4
    120e:	50 e0       	ldi	r21, 0x00	; 0
    1210:	69 e0       	ldi	r22, 0x09	; 9
    1212:	75 e0       	ldi	r23, 0x05	; 5
    1214:	89 e1       	ldi	r24, 0x19	; 25
    1216:	93 e0       	ldi	r25, 0x03	; 3
    1218:	0e 94 29 14 	call	0x2852	; 0x2852 <memcmp>
    return true;
}

static uint8_t eth_type_is_arp_and_my_ip(uint16_t len) {
    return len >= 41 && gPB[ETH_TYPE_H_P] == ETHTYPE_ARP_H_V &&
           gPB[ETH_TYPE_L_P] == ETHTYPE_ARP_L_V &&
    121c:	89 2b       	or	r24, r25
    121e:	09 f0       	breq	.+2      	; 0x1222 <_ZN9EtherCard10packetLoopEj+0xbc>
    1220:	ae c0       	rjmp	.+348    	; 0x137e <_ZN9EtherCard10packetLoopEj+0x218>
    EtherCard::copyIp(gPB + IP_SRC_P, EtherCard::myip);
    fill_ip_hdr_checksum();
}

static void make_arp_answer_from_request() {
    setMACs(gPB + ETH_SRC_MAC);
    1222:	a0 c0       	rjmp	.+320    	; 0x1364 <_ZN9EtherCard10packetLoopEj+0x1fe>
    1224:	89 ef       	ldi	r24, 0xF9	; 249
    1226:	92 e0       	ldi	r25, 0x02	; 2
    1228:	93 de       	rcall	.-730    	; 0xf50 <_ZL7setMACsPKh>
    gPB[ETH_ARP_OPCODE_H_P] = ETH_ARP_OPCODE_REPLY_H_V;
    122a:	e3 ef       	ldi	r30, 0xF3	; 243
    122c:	f2 e0       	ldi	r31, 0x02	; 2
    122e:	14 8a       	std	Z+20, r1	; 0x14
    gPB[ETH_ARP_OPCODE_L_P] = ETH_ARP_OPCODE_REPLY_L_V;
    1230:	82 e0       	ldi	r24, 0x02	; 2
    EtherCard::copyMac(gPB + ETH_ARP_DST_MAC_P, gPB + ETH_ARP_SRC_MAC_P);
    1232:	85 8b       	std	Z+21, r24	; 0x15
    1234:	69 e0       	ldi	r22, 0x09	; 9
    1236:	73 e0       	ldi	r23, 0x03	; 3
    1238:	83 e1       	ldi	r24, 0x13	; 19
    123a:	93 e0       	ldi	r25, 0x03	; 3
    EtherCard::copyMac(gPB + ETH_ARP_SRC_MAC_P, EtherCard::mymac);
    123c:	3a d1       	rcall	.+628    	; 0x14b2 <_ZN9EtherCard7copyMacEPhPKh>
    123e:	6d e0       	ldi	r22, 0x0D	; 13
    1240:	75 e0       	ldi	r23, 0x05	; 5
    1242:	89 e0       	ldi	r24, 0x09	; 9
    1244:	93 e0       	ldi	r25, 0x03	; 3
    EtherCard::copyIp(gPB + ETH_ARP_DST_IP_P, gPB + ETH_ARP_SRC_IP_P);
    1246:	35 d1       	rcall	.+618    	; 0x14b2 <_ZN9EtherCard7copyMacEPhPKh>
    1248:	6f e0       	ldi	r22, 0x0F	; 15
    124a:	73 e0       	ldi	r23, 0x03	; 3
    124c:	89 e1       	ldi	r24, 0x19	; 25
    124e:	93 e0       	ldi	r25, 0x03	; 3
    EtherCard::copyIp(gPB + ETH_ARP_SRC_IP_P, EtherCard::myip);
    1250:	23 d1       	rcall	.+582    	; 0x1498 <_ZN9EtherCard6copyIpEPhPKh>
    1252:	69 e0       	ldi	r22, 0x09	; 9
    1254:	75 e0       	ldi	r23, 0x05	; 5
    1256:	8f e0       	ldi	r24, 0x0F	; 15
    1258:	93 e0       	ldi	r25, 0x03	; 3
    125a:	1e d1       	rcall	.+572    	; 0x1498 <_ZN9EtherCard6copyIpEPhPKh>
    EtherCard::packetSend(42);
    125c:	8a e2       	ldi	r24, 0x2A	; 42
    125e:	90 e0       	ldi	r25, 0x00	; 0
    1260:	e0 dc       	rcall	.-1600   	; 0xc22 <_ZN8ENC28J6010packetSendEj>
    1262:	80 91 13 05 	lds	r24, 0x0513	; 0x800513 <_ZL9waitgwmac>

    if (eth_type_is_arp_and_my_ip(plen))
    {   //Service ARP request
        if (gPB[ETH_ARP_OPCODE_L_P]==ETH_ARP_OPCODE_REQ_L_V)
            make_arp_answer_from_request();
        if (waitgwmac & WGW_ACCEPT_ARP_REPLY && (gPB[ETH_ARP_OPCODE_L_P]==ETH_ARP_OPCODE_REPLY_L_V) && client_store_mac(gwip, gwmacaddr))
    1266:	83 ff       	sbrs	r24, 3
    1268:	0e c0       	rjmp	.+28     	; 0x1286 <_ZN9EtherCard10packetLoopEj+0x120>
    126a:	80 91 08 03 	lds	r24, 0x0308	; 0x800308 <_ZN8ENC28J606bufferE+0x15>
    126e:	82 30       	cpi	r24, 0x02	; 2
    1270:	51 f4       	brne	.+20     	; 0x1286 <_ZN9EtherCard10packetLoopEj+0x120>
    1272:	64 e1       	ldi	r22, 0x14	; 20
    1274:	75 e0       	ldi	r23, 0x05	; 5
    1276:	8d ef       	ldi	r24, 0xFD	; 253
    1278:	94 e0       	ldi	r25, 0x04	; 4
    127a:	84 de       	rcall	.-760    	; 0xf84 <_ZL16client_store_macPhS_>
    127c:	88 23       	and	r24, r24
    127e:	19 f0       	breq	.+6      	; 0x1286 <_ZN9EtherCard10packetLoopEj+0x120>
    1280:	82 e0       	ldi	r24, 0x02	; 2
            waitgwmac = WGW_HAVE_GW_MAC;
    1282:	80 93 13 05 	sts	0x0513, r24	; 0x800513 <_ZL9waitgwmac>
    1286:	80 91 1c 05 	lds	r24, 0x051C	; 0x80051c <_ZL11has_dns_mac>
        if (!has_dns_mac && waiting_for_dns_mac && client_store_mac(dnsip, destmacaddr)) {
    128a:	81 11       	cpse	r24, r1
    128c:	10 c0       	rjmp	.+32     	; 0x12ae <_ZN9EtherCard10packetLoopEj+0x148>
    128e:	80 91 1d 05 	lds	r24, 0x051D	; 0x80051d <_ZL19waiting_for_dns_mac>
    1292:	88 23       	and	r24, r24
    1294:	61 f0       	breq	.+24     	; 0x12ae <_ZN9EtherCard10packetLoopEj+0x148>
    1296:	6e e1       	ldi	r22, 0x1E	; 30
    1298:	75 e0       	ldi	r23, 0x05	; 5
    129a:	89 ef       	ldi	r24, 0xF9	; 249
    129c:	94 e0       	ldi	r25, 0x04	; 4
    129e:	72 de       	rcall	.-796    	; 0xf84 <_ZL16client_store_macPhS_>
    12a0:	88 23       	and	r24, r24
    12a2:	29 f0       	breq	.+10     	; 0x12ae <_ZN9EtherCard10packetLoopEj+0x148>
    12a4:	81 e0       	ldi	r24, 0x01	; 1
            has_dns_mac = true;
    12a6:	80 93 1c 05 	sts	0x051C, r24	; 0x80051c <_ZL11has_dns_mac>
    12aa:	10 92 1d 05 	sts	0x051D, r1	; 0x80051d <_ZL19waiting_for_dns_mac>
            waiting_for_dns_mac = false;
    12ae:	80 91 1a 05 	lds	r24, 0x051A	; 0x80051a <_ZL12has_dest_mac>
        }
        if (!has_dest_mac && waiting_for_dest_mac && client_store_mac(hisip, destmacaddr)) {
    12b2:	81 11       	cpse	r24, r1
    12b4:	68 c0       	rjmp	.+208    	; 0x1386 <_ZN9EtherCard10packetLoopEj+0x220>
    12b6:	80 91 1b 05 	lds	r24, 0x051B	; 0x80051b <_ZL20waiting_for_dest_mac>
    12ba:	88 23       	and	r24, r24
    12bc:	09 f4       	brne	.+2      	; 0x12c0 <_ZN9EtherCard10packetLoopEj+0x15a>
    12be:	63 c0       	rjmp	.+198    	; 0x1386 <_ZN9EtherCard10packetLoopEj+0x220>
    12c0:	6e e1       	ldi	r22, 0x1E	; 30
    12c2:	75 e0       	ldi	r23, 0x05	; 5
    12c4:	85 ef       	ldi	r24, 0xF5	; 245
    12c6:	94 e0       	ldi	r25, 0x04	; 4
    12c8:	5d de       	rcall	.-838    	; 0xf84 <_ZL16client_store_macPhS_>
    12ca:	88 23       	and	r24, r24
    12cc:	09 f4       	brne	.+2      	; 0x12d0 <_ZN9EtherCard10packetLoopEj+0x16a>
    12ce:	5b c0       	rjmp	.+182    	; 0x1386 <_ZN9EtherCard10packetLoopEj+0x220>
    12d0:	81 e0       	ldi	r24, 0x01	; 1
            has_dest_mac = true;
    12d2:	80 93 1a 05 	sts	0x051A, r24	; 0x80051a <_ZL12has_dest_mac>
    12d6:	10 92 1b 05 	sts	0x051B, r1	; 0x80051b <_ZL20waiting_for_dest_mac>
            waiting_for_dest_mac = false;
    12da:	55 c0       	rjmp	.+170    	; 0x1386 <_ZN9EtherCard10packetLoopEj+0x220>
    12dc:	80 91 ff 02 	lds	r24, 0x02FF	; 0x8002ff <_ZN8ENC28J606bufferE+0xc>
           gPB[ETH_TYPE_L_P] == ETHTYPE_ARP_L_V &&
           memcmp(gPB + ETH_ARP_DST_IP_P, EtherCard::myip, IP_LEN) == 0;
}

static uint8_t eth_type_is_ip_and_my_ip(uint16_t len) {
    return len >= 42 && gPB[ETH_TYPE_H_P] == ETHTYPE_IP_H_V &&
    12e0:	88 30       	cpi	r24, 0x08	; 8
    12e2:	09 f0       	breq	.+2      	; 0x12e6 <_ZN9EtherCard10packetLoopEj+0x180>
    12e4:	50 c0       	rjmp	.+160    	; 0x1386 <_ZN9EtherCard10packetLoopEj+0x220>
    12e6:	80 91 00 03 	lds	r24, 0x0300	; 0x800300 <_ZN8ENC28J606bufferE+0xd>
    12ea:	81 11       	cpse	r24, r1
    12ec:	4c c0       	rjmp	.+152    	; 0x1386 <_ZN9EtherCard10packetLoopEj+0x220>
    12ee:	80 91 01 03 	lds	r24, 0x0301	; 0x800301 <_ZN8ENC28J606bufferE+0xe>
           gPB[ETH_TYPE_L_P] == ETHTYPE_IP_L_V &&
    12f2:	85 34       	cpi	r24, 0x45	; 69
    12f4:	09 f0       	breq	.+2      	; 0x12f8 <_ZN9EtherCard10packetLoopEj+0x192>
    12f6:	47 c0       	rjmp	.+142    	; 0x1386 <_ZN9EtherCard10packetLoopEj+0x220>
    12f8:	44 e0       	ldi	r20, 0x04	; 4
           gPB[IP_HEADER_LEN_VER_P] == 0x45 &&
           (memcmp(gPB + IP_DST_P, EtherCard::myip, IP_LEN) == 0  //not my IP
    12fa:	50 e0       	ldi	r21, 0x00	; 0
    12fc:	69 e0       	ldi	r22, 0x09	; 9
    12fe:	75 e0       	ldi	r23, 0x05	; 5
    1300:	81 e1       	ldi	r24, 0x11	; 17
    1302:	93 e0       	ldi	r25, 0x03	; 3
    1304:	0e 94 29 14 	call	0x2852	; 0x2852 <memcmp>
    1308:	89 2b       	or	r24, r25
}

static uint8_t eth_type_is_ip_and_my_ip(uint16_t len) {
    return len >= 42 && gPB[ETH_TYPE_H_P] == ETHTYPE_IP_H_V &&
           gPB[ETH_TYPE_L_P] == ETHTYPE_IP_L_V &&
           gPB[IP_HEADER_LEN_VER_P] == 0x45 &&
    130a:	91 f1       	breq	.+100    	; 0x1370 <_ZN9EtherCard10packetLoopEj+0x20a>
    130c:	44 e0       	ldi	r20, 0x04	; 4
           (memcmp(gPB + IP_DST_P, EtherCard::myip, IP_LEN) == 0  //not my IP
            || (memcmp(gPB + IP_DST_P, EtherCard::broadcastip, IP_LEN) == 0) //not subnet broadcast
    130e:	50 e0       	ldi	r21, 0x00	; 0
    1310:	61 e0       	ldi	r22, 0x01	; 1
    1312:	75 e0       	ldi	r23, 0x05	; 5
    1314:	81 e1       	ldi	r24, 0x11	; 17
    1316:	93 e0       	ldi	r25, 0x03	; 3
    1318:	0e 94 29 14 	call	0x2852	; 0x2852 <memcmp>
    131c:	89 2b       	or	r24, r25
    131e:	41 f1       	breq	.+80     	; 0x1370 <_ZN9EtherCard10packetLoopEj+0x20a>
    1320:	44 e0       	ldi	r20, 0x04	; 4
            || (memcmp(gPB + IP_DST_P, allOnes, IP_LEN) == 0)); //not global broadcasts
    1322:	50 e0       	ldi	r21, 0x00	; 0
    1324:	65 e2       	ldi	r22, 0x25	; 37
    1326:	72 e0       	ldi	r23, 0x02	; 2
    1328:	81 e1       	ldi	r24, 0x11	; 17
    132a:	93 e0       	ldi	r25, 0x03	; 3
    132c:	0e 94 29 14 	call	0x2852	; 0x2852 <memcmp>
    1330:	89 2b       	or	r24, r25
    1332:	49 f5       	brne	.+82     	; 0x1386 <_ZN9EtherCard10packetLoopEj+0x220>
    1334:	1d c0       	rjmp	.+58     	; 0x1370 <_ZN9EtherCard10packetLoopEj+0x20a>
        //!@todo Add other protocols (and make each optional at compile time)
        return 0;
    }

#if ETHERCARD_UDPSERVER
    if (ether.udpServerListening() && gPB[IP_PROTO_P]==IP_PROTO_UDP_V)
    1336:	80 91 0a 03 	lds	r24, 0x030A	; 0x80030a <_ZN8ENC28J606bufferE+0x17>
    133a:	81 31       	cpi	r24, 0x11	; 17
    133c:	21 f5       	brne	.+72     	; 0x1386 <_ZN9EtherCard10packetLoopEj+0x220>
        }
        delaycnt++;

        //!@todo this is trying to find mac only once. Need some timeout to make another call if first one doesn't succeed.
        if(is_lan(myip, dnsip) && !has_dns_mac && !waiting_for_dns_mac) {
            client_arp_whohas(dnsip);
    133e:	1c c0       	rjmp	.+56     	; 0x1378 <_ZN9EtherCard10packetLoopEj+0x212>
    1340:	89 ef       	ldi	r24, 0xF9	; 249
    1342:	94 e0       	ldi	r25, 0x04	; 4
    1344:	35 de       	rcall	.-918    	; 0xfb0 <_ZL17client_arp_whohasPh>
            waiting_for_dns_mac = true;
    1346:	81 e0       	ldi	r24, 0x01	; 1
    1348:	80 93 1d 05 	sts	0x051D, r24	; 0x80051d <_ZL19waiting_for_dns_mac>
    134c:	40 cf       	rjmp	.-384    	; 0x11ce <_ZN9EtherCard10packetLoopEj+0x68>
        }

        //!@todo this is trying to find mac only once. Need some timeout to make another call if first one doesn't succeed.
        if(is_lan(myip, hisip) && !has_dest_mac && !waiting_for_dest_mac) {
            client_arp_whohas(hisip);
    134e:	85 ef       	ldi	r24, 0xF5	; 245
    1350:	94 e0       	ldi	r25, 0x04	; 4
    1352:	2e de       	rcall	.-932    	; 0xfb0 <_ZL17client_arp_whohasPh>
            waiting_for_dest_mac = true;
    1354:	81 e0       	ldi	r24, 0x01	; 1
    1356:	80 93 1b 05 	sts	0x051B, r24	; 0x80051b <_ZL20waiting_for_dest_mac>
    135a:	15 c0       	rjmp	.+42     	; 0x1386 <_ZN9EtherCard10packetLoopEj+0x220>
}

static uint8_t eth_type_is_ip_and_my_ip(uint16_t len) {
    return len >= 42 && gPB[ETH_TYPE_H_P] == ETHTYPE_IP_H_V &&
           gPB[ETH_TYPE_L_P] == ETHTYPE_IP_L_V &&
           gPB[IP_HEADER_LEN_VER_P] == 0x45 &&
    135c:	8a 97       	sbiw	r24, 0x2a	; 42
    135e:	08 f0       	brcs	.+2      	; 0x1362 <_ZN9EtherCard10packetLoopEj+0x1fc>
    1360:	bd cf       	rjmp	.-134    	; 0x12dc <_ZN9EtherCard10packetLoopEj+0x176>
        return 0;
    }

    if (eth_type_is_arp_and_my_ip(plen))
    {   //Service ARP request
        if (gPB[ETH_ARP_OPCODE_L_P]==ETH_ARP_OPCODE_REQ_L_V)
    1362:	11 c0       	rjmp	.+34     	; 0x1386 <_ZN9EtherCard10packetLoopEj+0x220>
    1364:	80 91 08 03 	lds	r24, 0x0308	; 0x800308 <_ZN8ENC28J606bufferE+0x15>
    1368:	81 30       	cpi	r24, 0x01	; 1
    136a:	09 f0       	breq	.+2      	; 0x136e <_ZN9EtherCard10packetLoopEj+0x208>
    136c:	7a cf       	rjmp	.-268    	; 0x1262 <_ZN9EtherCard10packetLoopEj+0xfc>
        //!@todo Add other protocols (and make each optional at compile time)
        return 0;
    }

#if ETHERCARD_UDPSERVER
    if (ether.udpServerListening() && gPB[IP_PROTO_P]==IP_PROTO_UDP_V)
    136e:	5a cf       	rjmp	.-332    	; 0x1224 <_ZN9EtherCard10packetLoopEj+0xbe>
    1370:	29 d0       	rcall	.+82     	; 0x13c4 <_ZN9EtherCard18udpServerListeningEv>
    1372:	81 11       	cpse	r24, r1
    1374:	e0 cf       	rjmp	.-64     	; 0x1336 <_ZN9EtherCard10packetLoopEj+0x1d0>
    1376:	07 c0       	rjmp	.+14     	; 0x1386 <_ZN9EtherCard10packetLoopEj+0x220>
    {   //Call UDP server handler (callback) if one is defined for this packet
        if(ether.udpServerHasProcessedPacket(plen))
    1378:	ce 01       	movw	r24, r28
    137a:	2b d0       	rcall	.+86     	; 0x13d2 <_ZN9EtherCard27udpServerHasProcessedPacketEj>
    137c:	04 c0       	rjmp	.+8      	; 0x1386 <_ZN9EtherCard10packetLoopEj+0x220>
    137e:	ca 32       	cpi	r28, 0x2A	; 42
}

static uint8_t eth_type_is_ip_and_my_ip(uint16_t len) {
    return len >= 42 && gPB[ETH_TYPE_H_P] == ETHTYPE_IP_H_V &&
           gPB[ETH_TYPE_L_P] == ETHTYPE_IP_L_V &&
           gPB[IP_HEADER_LEN_VER_P] == 0x45 &&
    1380:	d1 05       	cpc	r29, r1
    1382:	08 f0       	brcs	.+2      	; 0x1386 <_ZN9EtherCard10packetLoopEj+0x220>
    1384:	b0 cf       	rjmp	.-160    	; 0x12e6 <_ZN9EtherCard10packetLoopEj+0x180>
    1386:	80 e0       	ldi	r24, 0x00	; 0

    if (plen<54 || gPB[IP_PROTO_P]!=IP_PROTO_TCP_V )
        return 0; //from here on we are only interested in TCP-packets; these are longer than 54 bytes
		
	return 0;
}
    1388:	90 e0       	ldi	r25, 0x00	; 0
    138a:	df 91       	pop	r29
    138c:	cf 91       	pop	r28
    138e:	08 95       	ret

00001390 <_ZN9EtherCard21udpServerListenOnPortEPFvjPhjPKcjEj>:
    1390:	9c 01       	movw	r18, r24
    {
        if(gPB[UDP_DST_PORT_H_P] == (listeners[i].port >> 8) && gPB[UDP_DST_PORT_L_P] == ((uint8_t) listeners[i].port)) {
            listeners[i].listening = true;
        }
    }
}
    1392:	90 91 24 05 	lds	r25, 0x0524	; 0x800524 <numListeners>
    1396:	98 30       	cpi	r25, 0x08	; 8
    1398:	a0 f4       	brcc	.+40     	; 0x13c2 <_ZN9EtherCard21udpServerListenOnPortEPFvjPhjPKcjEj+0x32>
    139a:	e9 2f       	mov	r30, r25
    139c:	f0 e0       	ldi	r31, 0x00	; 0
    139e:	af 01       	movw	r20, r30
    13a0:	44 0f       	add	r20, r20
    13a2:	55 1f       	adc	r21, r21
    13a4:	44 0f       	add	r20, r20
    13a6:	55 1f       	adc	r21, r21
    13a8:	e4 0f       	add	r30, r20
    13aa:	f5 1f       	adc	r31, r21
    13ac:	eb 5d       	subi	r30, 0xDB	; 219
    13ae:	fa 4f       	sbci	r31, 0xFA	; 250
    13b0:	31 83       	std	Z+1, r19	; 0x01
    13b2:	20 83       	st	Z, r18
    13b4:	73 83       	std	Z+3, r23	; 0x03
    13b6:	62 83       	std	Z+2, r22	; 0x02
    13b8:	81 e0       	ldi	r24, 0x01	; 1
    13ba:	84 83       	std	Z+4, r24	; 0x04
    13bc:	9f 5f       	subi	r25, 0xFF	; 255
    13be:	90 93 24 05 	sts	0x0524, r25	; 0x800524 <numListeners>
    13c2:	08 95       	ret

000013c4 <_ZN9EtherCard18udpServerListeningEv>:

bool EtherCard::udpServerListening() {
    return numListeners > 0;
    13c4:	81 e0       	ldi	r24, 0x01	; 1
    13c6:	90 91 24 05 	lds	r25, 0x0524	; 0x800524 <numListeners>
    13ca:	91 11       	cpse	r25, r1
    13cc:	01 c0       	rjmp	.+2      	; 0x13d0 <_ZN9EtherCard18udpServerListeningEv+0xc>
    13ce:	80 e0       	ldi	r24, 0x00	; 0
}
    13d0:	08 95       	ret

000013d2 <_ZN9EtherCard27udpServerHasProcessedPacketEj>:

bool EtherCard::udpServerHasProcessedPacket(uint16_t plen) {
    13d2:	8f 92       	push	r8
    13d4:	9f 92       	push	r9
    13d6:	bf 92       	push	r11
    13d8:	cf 92       	push	r12
    13da:	df 92       	push	r13
    13dc:	ef 92       	push	r14
    13de:	ff 92       	push	r15
    13e0:	0f 93       	push	r16
    13e2:	1f 93       	push	r17
    13e4:	cf 93       	push	r28
    13e6:	df 93       	push	r29
    bool packetProcessed = false;
    for(int i = 0; i < numListeners; i++)
    13e8:	80 91 24 05 	lds	r24, 0x0524	; 0x800524 <numListeners>
    13ec:	88 23       	and	r24, r24
    13ee:	09 f4       	brne	.+2      	; 0x13f2 <_ZN9EtherCard27udpServerHasProcessedPacketEj+0x20>
    13f0:	46 c0       	rjmp	.+140    	; 0x147e <_ZN9EtherCard27udpServerHasProcessedPacketEj+0xac>
    13f2:	c5 e2       	ldi	r28, 0x25	; 37
    13f4:	d5 e0       	ldi	r29, 0x05	; 5
    13f6:	e1 2c       	mov	r14, r1
    13f8:	f1 2c       	mov	r15, r1
    13fa:	80 e0       	ldi	r24, 0x00	; 0
    {
        if(gPB[UDP_DST_PORT_H_P] == (listeners[i].port >> 8) && gPB[UDP_DST_PORT_L_P] == ((uint8_t) listeners[i].port) && listeners[i].listening)
    13fc:	0f 2e       	mov	r0, r31
    13fe:	f3 ef       	ldi	r31, 0xF3	; 243
    1400:	cf 2e       	mov	r12, r31
    1402:	f2 e0       	ldi	r31, 0x02	; 2
    1404:	df 2e       	mov	r13, r31
    1406:	f0 2d       	mov	r31, r0
                listeners[i].port,
                gPB + IP_SRC_P,
                (gPB[UDP_SRC_PORT_H_P] << 8) | gPB[UDP_SRC_PORT_L_P],
                (const char *) (gPB + UDP_DATA_P),
                datalen);
            packetProcessed = true;
    1408:	bb 24       	eor	r11, r11
    140a:	b3 94       	inc	r11

bool EtherCard::udpServerHasProcessedPacket(uint16_t plen) {
    bool packetProcessed = false;
    for(int i = 0; i < numListeners; i++)
    {
        if(gPB[UDP_DST_PORT_H_P] == (listeners[i].port >> 8) && gPB[UDP_DST_PORT_L_P] == ((uint8_t) listeners[i].port) && listeners[i].listening)
    140c:	aa 81       	ldd	r26, Y+2	; 0x02
    140e:	bb 81       	ldd	r27, Y+3	; 0x03
    1410:	f6 01       	movw	r30, r12
    1412:	24 a1       	ldd	r18, Z+36	; 0x24
    1414:	30 e0       	ldi	r19, 0x00	; 0
    1416:	4b 2f       	mov	r20, r27
    1418:	55 27       	eor	r21, r21
    141a:	24 17       	cp	r18, r20
    141c:	35 07       	cpc	r19, r21
    141e:	21 f5       	brne	.+72     	; 0x1468 <_ZN9EtherCard27udpServerHasProcessedPacketEj+0x96>
    1420:	25 a1       	ldd	r18, Z+37	; 0x25
    1422:	30 e0       	ldi	r19, 0x00	; 0
    1424:	ad 01       	movw	r20, r26
    1426:	55 27       	eor	r21, r21
    1428:	24 17       	cp	r18, r20
    142a:	35 07       	cpc	r19, r21
    142c:	e9 f4       	brne	.+58     	; 0x1468 <_ZN9EtherCard27udpServerHasProcessedPacketEj+0x96>
    142e:	9c 81       	ldd	r25, Y+4	; 0x04
    1430:	99 23       	and	r25, r25
    1432:	d1 f0       	breq	.+52     	; 0x1468 <_ZN9EtherCard27udpServerHasProcessedPacketEj+0x96>
            listeners[i].callback(
                listeners[i].port,
                gPB + IP_SRC_P,
                (gPB[UDP_SRC_PORT_H_P] << 8) | gPB[UDP_SRC_PORT_L_P],
                (const char *) (gPB + UDP_DATA_P),
                datalen);
    1434:	07 a1       	ldd	r16, Z+39	; 0x27
    1436:	10 e0       	ldi	r17, 0x00	; 0
    1438:	08 50       	subi	r16, 0x08	; 8
    143a:	11 09       	sbc	r17, r1
    143c:	86 a1       	ldd	r24, Z+38	; 0x26
    143e:	90 e0       	ldi	r25, 0x00	; 0
    1440:	98 2f       	mov	r25, r24
    1442:	88 27       	eor	r24, r24
    1444:	08 0f       	add	r16, r24
    1446:	19 1f       	adc	r17, r25
    1448:	42 a1       	ldd	r20, Z+34	; 0x22
    144a:	50 e0       	ldi	r21, 0x00	; 0
    144c:	54 2f       	mov	r21, r20
    144e:	44 27       	eor	r20, r20
    1450:	83 a1       	ldd	r24, Z+35	; 0x23
    1452:	48 2b       	or	r20, r24
    1454:	88 80       	ld	r8, Y
    1456:	99 80       	ldd	r9, Y+1	; 0x01
    1458:	2d e1       	ldi	r18, 0x1D	; 29
    145a:	33 e0       	ldi	r19, 0x03	; 3
    145c:	6d e0       	ldi	r22, 0x0D	; 13
    145e:	73 e0       	ldi	r23, 0x03	; 3
    1460:	cd 01       	movw	r24, r26
    1462:	f4 01       	movw	r30, r8
    1464:	19 95       	eicall
            packetProcessed = true;
    1466:	8b 2d       	mov	r24, r11
    return numListeners > 0;
}

bool EtherCard::udpServerHasProcessedPacket(uint16_t plen) {
    bool packetProcessed = false;
    for(int i = 0; i < numListeners; i++)
    1468:	ff ef       	ldi	r31, 0xFF	; 255
    146a:	ef 1a       	sub	r14, r31
    146c:	ff 0a       	sbc	r15, r31
    146e:	25 96       	adiw	r28, 0x05	; 5
    1470:	20 91 24 05 	lds	r18, 0x0524	; 0x800524 <numListeners>
    1474:	30 e0       	ldi	r19, 0x00	; 0
    1476:	e2 16       	cp	r14, r18
    1478:	f3 06       	cpc	r15, r19
    147a:	44 f2       	brlt	.-112    	; 0x140c <_ZN9EtherCard27udpServerHasProcessedPacketEj+0x3a>
    147c:	01 c0       	rjmp	.+2      	; 0x1480 <_ZN9EtherCard27udpServerHasProcessedPacketEj+0xae>
bool EtherCard::udpServerListening() {
    return numListeners > 0;
}

bool EtherCard::udpServerHasProcessedPacket(uint16_t plen) {
    bool packetProcessed = false;
    147e:	80 e0       	ldi	r24, 0x00	; 0
                datalen);
            packetProcessed = true;
        }
    }
    return packetProcessed;
}
    1480:	df 91       	pop	r29
    1482:	cf 91       	pop	r28
    1484:	1f 91       	pop	r17
    1486:	0f 91       	pop	r16
    1488:	ff 90       	pop	r15
    148a:	ef 90       	pop	r14
    148c:	df 90       	pop	r13
    148e:	cf 90       	pop	r12
    1490:	bf 90       	pop	r11
    1492:	9f 90       	pop	r9
    1494:	8f 90       	pop	r8
    1496:	08 95       	ret

00001498 <_ZN9EtherCard6copyIpEPhPKh>:
#include "../Peripherals/HardwareSerial.h"
#include <stdlib.h>
#include <ctype.h>

void EtherCard::copyIp (uint8_t *dst, const uint8_t *src) {
    memcpy(dst, src, IP_LEN);
    1498:	fb 01       	movw	r30, r22
    149a:	20 81       	ld	r18, Z
    149c:	31 81       	ldd	r19, Z+1	; 0x01
    149e:	fc 01       	movw	r30, r24
    14a0:	31 83       	std	Z+1, r19	; 0x01
    14a2:	20 83       	st	Z, r18
    14a4:	fb 01       	movw	r30, r22
    14a6:	22 81       	ldd	r18, Z+2	; 0x02
    14a8:	33 81       	ldd	r19, Z+3	; 0x03
    14aa:	fc 01       	movw	r30, r24
    14ac:	33 83       	std	Z+3, r19	; 0x03
    14ae:	22 83       	std	Z+2, r18	; 0x02
    14b0:	08 95       	ret

000014b2 <_ZN9EtherCard7copyMacEPhPKh>:
}

void EtherCard::copyMac (uint8_t *dst, const uint8_t *src) {
    14b2:	dc 01       	movw	r26, r24
    memcpy(dst, src, ETH_LEN);
    14b4:	96 e0       	ldi	r25, 0x06	; 6
    14b6:	fb 01       	movw	r30, r22
    14b8:	01 90       	ld	r0, Z+
    14ba:	0d 92       	st	X+, r0
    14bc:	9a 95       	dec	r25
    14be:	e1 f7       	brne	.-8      	; 0x14b8 <_ZN9EtherCard7copyMacEPhPKh+0x6>
    14c0:	08 95       	ret

000014c2 <_ZN9EtherComm13CheckChecksumEPKch>:
	}
}

bool EtherComm::CheckChecksum(const char *data, uint8_t len){
  //data++; //Ignore first byte, the start byte.
  uint8_t checksum = (uint8_t)(*(data++)); //Start by 'adding' the command to the checksum
    14c2:	fc 01       	movw	r30, r24
    14c4:	20 81       	ld	r18, Z
  checksum += (uint8_t)(*(data++));
    14c6:	dc 01       	movw	r26, r24
    14c8:	12 96       	adiw	r26, 0x02	; 2
    14ca:	81 81       	ldd	r24, Z+1	; 0x01
    14cc:	92 2f       	mov	r25, r18
    14ce:	98 0f       	add	r25, r24
  while(len-- > 0){
    14d0:	3f ef       	ldi	r19, 0xFF	; 255
    14d2:	36 0f       	add	r19, r22
    14d4:	66 23       	and	r22, r22
    14d6:	61 f0       	breq	.+24     	; 0x14f0 <_ZN9EtherComm13CheckChecksumEPKch+0x2e>
    14d8:	fd 01       	movw	r30, r26
    14da:	83 2f       	mov	r24, r19
    checksum += (uint8_t)(*(data++));
    14dc:	21 91       	ld	r18, Z+
    14de:	92 0f       	add	r25, r18

bool EtherComm::CheckChecksum(const char *data, uint8_t len){
  //data++; //Ignore first byte, the start byte.
  uint8_t checksum = (uint8_t)(*(data++)); //Start by 'adding' the command to the checksum
  checksum += (uint8_t)(*(data++));
  while(len-- > 0){
    14e0:	81 50       	subi	r24, 0x01	; 1
    14e2:	e0 f7       	brcc	.-8      	; 0x14dc <_ZN9EtherComm13CheckChecksumEPKch+0x1a>
    14e4:	23 2f       	mov	r18, r19
    14e6:	30 e0       	ldi	r19, 0x00	; 0
    14e8:	2f 5f       	subi	r18, 0xFF	; 255
    14ea:	3f 4f       	sbci	r19, 0xFF	; 255
    14ec:	a2 0f       	add	r26, r18
    14ee:	b3 1f       	adc	r27, r19
    checksum += (uint8_t)(*(data++));
  }
//  Serial.println((uint8_t)(checksum & CHECKSUM_MASK));
  return (checksum & CHECKSUM_MASK) == (uint8_t)(*data);
    14f0:	81 e0       	ldi	r24, 0x01	; 1
    14f2:	2c 91       	ld	r18, X
    14f4:	29 13       	cpse	r18, r25
    14f6:	80 e0       	ldi	r24, 0x00	; 0
}
    14f8:	08 95       	ret

000014fa <_Z10udpReceivejPhjPKcj>:

//char EtherComm::buffer[BUFFER_SIZE];
uint8_t* EtherComm::buffer = ether.buffer + UDP_DATA_P;

//callback that prints received packets to the serial port
void udpReceive(uint16_t dest_port, uint8_t src_ip[IP_LEN], uint16_t src_port, const char *data, uint16_t packetLen){
    14fa:	0f 93       	push	r16
    14fc:	1f 93       	push	r17
    14fe:	cf 93       	push	r28
    1500:	df 93       	push	r29
	}
	Serial.println();
	Serial.print("Checksum: ");
	Serial.println((uint8_t)(*index));
*/	
	if(packetLen >= 3){ //At minimum, start byte, command, and checksum.
    1502:	a8 01       	movw	r20, r16
    1504:	43 50       	subi	r20, 0x03	; 3
    1506:	51 09       	sbc	r21, r1
    1508:	4f 3f       	cpi	r20, 0xFF	; 255
    150a:	51 05       	cpc	r21, r1
    150c:	09 f0       	breq	.+2      	; 0x1510 <_Z10udpReceivejPhjPKcj+0x16>
    150e:	88 f4       	brcc	.+34     	; 0x1532 <_Z10udpReceivejPhjPKcj+0x38>
		if(packetLen <= 258){
			uint8_t dataLen = (uint8_t)(packetLen - 3);
			if((uint8_t)data[0] == START_BYTE){
    1510:	f9 01       	movw	r30, r18
    1512:	80 81       	ld	r24, Z
    1514:	8f 3f       	cpi	r24, 0xFF	; 255
    1516:	69 f4       	brne	.+26     	; 0x1532 <_Z10udpReceivejPhjPKcj+0x38>
    1518:	e9 01       	movw	r28, r18
	Serial.print("Checksum: ");
	Serial.println((uint8_t)(*index));
*/	
	if(packetLen >= 3){ //At minimum, start byte, command, and checksum.
		if(packetLen <= 258){
			uint8_t dataLen = (uint8_t)(packetLen - 3);
    151a:	03 50       	subi	r16, 0x03	; 3
			if((uint8_t)data[0] == START_BYTE){
			//		Serial.print("Computed Checksum: ");
				if(EtherComm::CheckChecksum(data, dataLen)){
    151c:	60 2f       	mov	r22, r16
    151e:	c9 01       	movw	r24, r18
    1520:	d0 df       	rcall	.-96     	; 0x14c2 <_ZN9EtherComm13CheckChecksumEPKch>
    1522:	88 23       	and	r24, r24
    1524:	31 f0       	breq	.+12     	; 0x1532 <_Z10udpReceivejPhjPKcj+0x38>
					EtherComm::CommandReceived((uint8_t)data[1], (const uint8_t*)(data + 2), dataLen);
    1526:	be 01       	movw	r22, r28
    1528:	6e 5f       	subi	r22, 0xFE	; 254
    152a:	7f 4f       	sbci	r23, 0xFF	; 255
    152c:	40 2f       	mov	r20, r16
    152e:	89 81       	ldd	r24, Y+1	; 0x01
    1530:	c3 d9       	rcall	.-3194   	; 0x8b8 <_ZN9EtherComm15CommandReceivedEhPKhh>
				}
			}
		}
	}
}
    1532:	df 91       	pop	r29
    1534:	cf 91       	pop	r28
    1536:	1f 91       	pop	r17
    1538:	0f 91       	pop	r16
    153a:	08 95       	ret

0000153c <_ZN9EtherComm5beginEjjRVhS1_h>:
  }
//  Serial.println((uint8_t)(checksum & CHECKSUM_MASK));
  return (checksum & CHECKSUM_MASK) == (uint8_t)(*data);
}

bool EtherComm::begin(uint16_t recvPort, uint16_t destPort, Register& csDDR, Register& csPort, uint8_t csPin){
    153c:	0f 93       	push	r16
    153e:	cf 93       	push	r28
    1540:	df 93       	push	r29
    1542:	ec 01       	movw	r28, r24
    1544:	ca 01       	movw	r24, r20
    1546:	a9 01       	movw	r20, r18
    1548:	20 2f       	mov	r18, r16
  EtherComm::_recvPort = recvPort;
    154a:	d0 93 50 05 	sts	0x0550, r29	; 0x800550 <_ZN9EtherComm9_recvPortE+0x1>
    154e:	c0 93 4f 05 	sts	0x054F, r28	; 0x80054f <_ZN9EtherComm9_recvPortE>
  EtherComm::_destPort = destPort;
    1552:	70 93 4e 05 	sts	0x054E, r23	; 0x80054e <_ZN9EtherComm9_destPortE+0x1>
    1556:	60 93 4d 05 	sts	0x054D, r22	; 0x80054d <_ZN9EtherComm9_destPortE>
  
  if (ether.begin(EtherComm::_mymac, csDDR, csPort, csPin) == 0) return false;
    155a:	bc 01       	movw	r22, r24
    155c:	86 e0       	ldi	r24, 0x06	; 6
    155e:	92 e0       	ldi	r25, 0x02	; 2
    1560:	06 dc       	rcall	.-2036   	; 0xd6e <_ZN9EtherCard5beginEPKhRVhS3_h>
    1562:	88 23       	and	r24, r24
    1564:	79 f0       	breq	.+30     	; 0x1584 <_ZN9EtherComm5beginEjjRVhS1_h+0x48>
  ether.staticSetup(EtherComm::_myip, EtherComm::_gwip);
    1566:	20 e0       	ldi	r18, 0x00	; 0
    1568:	30 e0       	ldi	r19, 0x00	; 0
    156a:	40 e0       	ldi	r20, 0x00	; 0
    156c:	50 e0       	ldi	r21, 0x00	; 0
    156e:	6c e0       	ldi	r22, 0x0C	; 12
    1570:	72 e0       	ldi	r23, 0x02	; 2
    1572:	80 e1       	ldi	r24, 0x10	; 16
    1574:	92 e0       	ldi	r25, 0x02	; 2
    1576:	14 dc       	rcall	.-2008   	; 0xda0 <_ZN9EtherCard11staticSetupEPKhS1_S1_S1_>
  ether.printIp("GW:  ", ether.gwip);
  ether.printIp("DNS: ", ether.dnsip);
  */
  
  //Register the udpSerialPrint() method to listen to port the receive port.
  ether.udpServerListenOnPort(&udpReceive, recvPort);
    1578:	be 01       	movw	r22, r28
    157a:	8d e7       	ldi	r24, 0x7D	; 125
    157c:	9a e0       	ldi	r25, 0x0A	; 10
    157e:	08 df       	rcall	.-496    	; 0x1390 <_ZN9EtherCard21udpServerListenOnPortEPFvjPhjPKcjEj>
  
  return true;
    1580:	81 e0       	ldi	r24, 0x01	; 1
    1582:	01 c0       	rjmp	.+2      	; 0x1586 <_ZN9EtherComm5beginEjjRVhS1_h+0x4a>

bool EtherComm::begin(uint16_t recvPort, uint16_t destPort, Register& csDDR, Register& csPort, uint8_t csPin){
  EtherComm::_recvPort = recvPort;
  EtherComm::_destPort = destPort;
  
  if (ether.begin(EtherComm::_mymac, csDDR, csPort, csPin) == 0) return false;
    1584:	80 e0       	ldi	r24, 0x00	; 0
  
  //Register the udpSerialPrint() method to listen to port the receive port.
  ether.udpServerListenOnPort(&udpReceive, recvPort);
  
  return true;
}
    1586:	df 91       	pop	r29
    1588:	cf 91       	pop	r28
    158a:	0f 91       	pop	r16
    158c:	08 95       	ret

0000158e <_ZN9EtherComm11SendCommandEhh>:

void EtherComm::SendCommand(uint8_t cmd, uint8_t len){
    158e:	0f 93       	push	r16
    1590:	1f 93       	push	r17
    1592:	cf 93       	push	r28
    1594:	df 93       	push	r29
  EtherComm::buffer[0] = START_BYTE;
    1596:	e0 91 00 02 	lds	r30, 0x0200	; 0x800200 <_ZN9EtherComm6bufferE>
    159a:	f0 91 01 02 	lds	r31, 0x0201	; 0x800201 <_ZN9EtherComm6bufferE+0x1>
    159e:	9f ef       	ldi	r25, 0xFF	; 255
    15a0:	90 83       	st	Z, r25
  EtherComm::buffer[1] = cmd;
    15a2:	e0 91 00 02 	lds	r30, 0x0200	; 0x800200 <_ZN9EtherComm6bufferE>
    15a6:	f0 91 01 02 	lds	r31, 0x0201	; 0x800201 <_ZN9EtherComm6bufferE+0x1>
    15aa:	81 83       	std	Z+1, r24	; 0x01
  //EtherComm::buffer[2] = len;
  
  uint8_t checksum = START_BYTE + cmd;
    15ac:	81 50       	subi	r24, 0x01	; 1
  uint8_t* index = &EtherComm::buffer[2]; //TODO why is char* being used? convert ot uint8_t*!!
    15ae:	c0 91 00 02 	lds	r28, 0x0200	; 0x800200 <_ZN9EtherComm6bufferE>
    15b2:	d0 91 01 02 	lds	r29, 0x0201	; 0x800201 <_ZN9EtherComm6bufferE+0x1>
    15b6:	de 01       	movw	r26, r28
    15b8:	12 96       	adiw	r26, 0x02	; 2
  uint8_t bytes = len;
  while(bytes-- > 0){
    15ba:	4f ef       	ldi	r20, 0xFF	; 255
    15bc:	46 0f       	add	r20, r22
    15be:	66 23       	and	r22, r22
    15c0:	81 f0       	breq	.+32     	; 0x15e2 <_ZN9EtherComm11SendCommandEhh+0x54>
    15c2:	fd 01       	movw	r30, r26
    15c4:	50 e0       	ldi	r21, 0x00	; 0
    15c6:	9a 01       	movw	r18, r20
    15c8:	2d 5f       	subi	r18, 0xFD	; 253
    15ca:	3f 4f       	sbci	r19, 0xFF	; 255
    15cc:	2c 0f       	add	r18, r28
    15ce:	3d 1f       	adc	r19, r29
    checksum += (uint8_t)(*(index++));  
    15d0:	91 91       	ld	r25, Z+
    15d2:	89 0f       	add	r24, r25
  //EtherComm::buffer[2] = len;
  
  uint8_t checksum = START_BYTE + cmd;
  uint8_t* index = &EtherComm::buffer[2]; //TODO why is char* being used? convert ot uint8_t*!!
  uint8_t bytes = len;
  while(bytes-- > 0){
    15d4:	e2 17       	cp	r30, r18
    15d6:	f3 07       	cpc	r31, r19
    15d8:	d9 f7       	brne	.-10     	; 0x15d0 <_ZN9EtherComm11SendCommandEhh+0x42>
    15da:	4f 5f       	subi	r20, 0xFF	; 255
    15dc:	5f 4f       	sbci	r21, 0xFF	; 255
    15de:	a4 0f       	add	r26, r20
    15e0:	b5 1f       	adc	r27, r21
    checksum += (uint8_t)(*(index++));  
  }
  (*index) = (uint8_t)(checksum & CHECKSUM_MASK);
    15e2:	8c 93       	st	X, r24

  //Serial.print("Send: ");
  //Serial.println(len);
  ether.sendUdp(EtherComm::buffer, (uint16_t)len + (uint16_t)3, _recvPort, _destIP, _destPort);
    15e4:	00 91 4d 05 	lds	r16, 0x054D	; 0x80054d <_ZN9EtherComm9_destPortE>
    15e8:	10 91 4e 05 	lds	r17, 0x054E	; 0x80054e <_ZN9EtherComm9_destPortE+0x1>
    15ec:	40 91 4f 05 	lds	r20, 0x054F	; 0x80054f <_ZN9EtherComm9_recvPortE>
    15f0:	50 91 50 05 	lds	r21, 0x0550	; 0x800550 <_ZN9EtherComm9_recvPortE+0x1>
    15f4:	70 e0       	ldi	r23, 0x00	; 0
    15f6:	6d 5f       	subi	r22, 0xFD	; 253
    15f8:	7f 4f       	sbci	r23, 0xFF	; 255
    15fa:	22 e0       	ldi	r18, 0x02	; 2
    15fc:	32 e0       	ldi	r19, 0x02	; 2
    15fe:	80 91 00 02 	lds	r24, 0x0200	; 0x800200 <_ZN9EtherComm6bufferE>
    1602:	90 91 01 02 	lds	r25, 0x0201	; 0x800201 <_ZN9EtherComm6bufferE+0x1>
    1606:	76 dd       	rcall	.-1300   	; 0x10f4 <_ZN9EtherCard7sendUdpEPKhjjS1_j>
}
    1608:	df 91       	pop	r29
    160a:	cf 91       	pop	r28
    160c:	1f 91       	pop	r17
    160e:	0f 91       	pop	r16
    1610:	08 95       	ret

00001612 <main>:
	public:
	inline HardwareSerial(
	volatile uint8_t *ubrrh, volatile uint8_t *ubrrl,
	volatile uint8_t *ucsra, volatile uint8_t *ucsrb,
	volatile uint8_t *ucsrc, volatile uint8_t *udr);
	void begin(unsigned long baud) { begin(baud, SERIAL_8N1); }
    1612:	26 e0       	ldi	r18, 0x06	; 6
    1614:	40 e8       	ldi	r20, 0x80	; 128
    1616:	55 e2       	ldi	r21, 0x25	; 37
    1618:	60 e0       	ldi	r22, 0x00	; 0
    161a:	70 e0       	ldi	r23, 0x00	; 0
    161c:	81 e5       	ldi	r24, 0x51	; 81
    161e:	95 e0       	ldi	r25, 0x05	; 5
    1620:	0f d1       	rcall	.+542    	; 0x1840 <_ZN14HardwareSerial5beginEmh>
#include "TestIMU.h"

int main(void){
	//TestIMU();
	Serial.begin(9600);
	Serial.println("\nInitializing...");
    1622:	6b e2       	ldi	r22, 0x2B	; 43
    1624:	72 e0       	ldi	r23, 0x02	; 2
    1626:	81 e5       	ldi	r24, 0x51	; 81
    1628:	95 e0       	ldi	r25, 0x05	; 5
	
	if(!rov.begin()){
    162a:	77 d7       	rcall	.+3822   	; 0x251a <_ZN5Print7printlnEPKc>
    162c:	fd d6       	rcall	.+3578   	; 0x2428 <_ZN5Robot5beginEv>
    162e:	81 11       	cpse	r24, r1
    1630:	06 c0       	rjmp	.+12     	; 0x163e <main+0x2c>
		Serial.println("Failed to initialize robot.");
    1632:	6c e3       	ldi	r22, 0x3C	; 60
    1634:	72 e0       	ldi	r23, 0x02	; 2
    1636:	81 e5       	ldi	r24, 0x51	; 81
    1638:	95 e0       	ldi	r25, 0x05	; 5
    163a:	6f d7       	rcall	.+3806   	; 0x251a <_ZN5Print7printlnEPKc>
    163c:	ff cf       	rjmp	.-2      	; 0x163c <main+0x2a>
		while(1);
	}
	Serial.println("Robot initialized.");
    163e:	68 e5       	ldi	r22, 0x58	; 88
    1640:	72 e0       	ldi	r23, 0x02	; 2
    1642:	81 e5       	ldi	r24, 0x51	; 81
    1644:	95 e0       	ldi	r25, 0x05	; 5
    1646:	69 d7       	rcall	.+3794   	; 0x251a <_ZN5Print7printlnEPKc>
	
	if(!EtherComm::begin((uint16_t)6001, (uint16_t)6002, EthernetDDR, EthernetPort, EthernetPin_CS)){
    1648:	00 e2       	ldi	r16, 0x20	; 32
    164a:	22 e0       	ldi	r18, 0x02	; 2
    164c:	31 e0       	ldi	r19, 0x01	; 1
    164e:	41 e0       	ldi	r20, 0x01	; 1
    1650:	51 e0       	ldi	r21, 0x01	; 1
    1652:	62 e7       	ldi	r22, 0x72	; 114
    1654:	77 e1       	ldi	r23, 0x17	; 23
    1656:	81 e7       	ldi	r24, 0x71	; 113
    1658:	97 e1       	ldi	r25, 0x17	; 23
    165a:	70 df       	rcall	.-288    	; 0x153c <_ZN9EtherComm5beginEjjRVhS1_h>
    165c:	81 11       	cpse	r24, r1
		Serial.println("Failed to access Ethernet controller.");
    165e:	06 c0       	rjmp	.+12     	; 0x166c <main+0x5a>
    1660:	6b e6       	ldi	r22, 0x6B	; 107
    1662:	72 e0       	ldi	r23, 0x02	; 2
    1664:	81 e5       	ldi	r24, 0x51	; 81
    1666:	95 e0       	ldi	r25, 0x05	; 5
		while(1);
	}
	Serial.println("Connected to controller.");
    1668:	58 d7       	rcall	.+3760   	; 0x251a <_ZN5Print7printlnEPKc>
    166a:	ff cf       	rjmp	.-2      	; 0x166a <main+0x58>
    166c:	61 e9       	ldi	r22, 0x91	; 145
    166e:	72 e0       	ldi	r23, 0x02	; 2
    1670:	81 e5       	ldi	r24, 0x51	; 81
    1672:	95 e0       	ldi	r25, 0x05	; 5
  static bool begin(uint16_t recvPort, uint16_t destPort, Register& csDDR, Register& csPort, uint8_t csPin);

  friend void udpReceive(uint16_t dest_port, uint8_t src_ip[IP_LEN], uint16_t src_port, const char *data, uint16_t len);

  static void Loop(){
    ether.packetLoop(ether.packetReceive());
    1674:	52 d7       	rcall	.+3748   	; 0x251a <_ZN5Print7printlnEPKc>
    1676:	16 db       	rcall	.-2516   	; 0xca4 <_ZN8ENC28J6013packetReceiveEv>
    1678:	76 dd       	rcall	.-1300   	; 0x1166 <_ZN9EtherCard10packetLoopEj>
    167a:	fd cf       	rjmp	.-6      	; 0x1676 <main+0x64>

0000167c <_ZN14HardwareSerial9availableEv>:
    167c:	fc 01       	movw	r30, r24
	#endif
	#if defined(HAVE_HWSERIAL2)
	if (Serial2_available && serialEvent2 && Serial2_available()) serialEvent2();
	#endif
	#if defined(HAVE_HWSERIAL3)
	if (Serial3_available && serialEvent3 && Serial3_available()) serialEvent3();
    167e:	97 85       	ldd	r25, Z+15	; 0x0f
    1680:	20 89       	ldd	r18, Z+16	; 0x10
    1682:	89 2f       	mov	r24, r25
    1684:	90 e0       	ldi	r25, 0x00	; 0
    1686:	80 5c       	subi	r24, 0xC0	; 192
    1688:	9f 4f       	sbci	r25, 0xFF	; 255
    168a:	82 1b       	sub	r24, r18
    168c:	91 09       	sbc	r25, r1
    168e:	8f 73       	andi	r24, 0x3F	; 63
    1690:	99 27       	eor	r25, r25
    1692:	08 95       	ret

00001694 <_ZN14HardwareSerial4peekEv>:
    1694:	fc 01       	movw	r30, r24
    1696:	97 85       	ldd	r25, Z+15	; 0x0f
    1698:	80 89       	ldd	r24, Z+16	; 0x10
    169a:	98 17       	cp	r25, r24
    169c:	31 f0       	breq	.+12     	; 0x16aa <_ZN14HardwareSerial4peekEv+0x16>
    169e:	80 89       	ldd	r24, Z+16	; 0x10
    16a0:	e8 0f       	add	r30, r24
    16a2:	f1 1d       	adc	r31, r1
    16a4:	83 89       	ldd	r24, Z+19	; 0x13
    16a6:	90 e0       	ldi	r25, 0x00	; 0
    16a8:	08 95       	ret
    16aa:	8f ef       	ldi	r24, 0xFF	; 255
    16ac:	9f ef       	ldi	r25, 0xFF	; 255
    16ae:	08 95       	ret

000016b0 <_ZN14HardwareSerial4readEv>:
    16b0:	fc 01       	movw	r30, r24
    16b2:	97 85       	ldd	r25, Z+15	; 0x0f
    16b4:	80 89       	ldd	r24, Z+16	; 0x10
    16b6:	98 17       	cp	r25, r24
    16b8:	61 f0       	breq	.+24     	; 0x16d2 <_ZN14HardwareSerial4readEv+0x22>
    16ba:	80 89       	ldd	r24, Z+16	; 0x10
    16bc:	df 01       	movw	r26, r30
    16be:	a8 0f       	add	r26, r24
    16c0:	b1 1d       	adc	r27, r1
    16c2:	53 96       	adiw	r26, 0x13	; 19
    16c4:	8c 91       	ld	r24, X
    16c6:	90 89       	ldd	r25, Z+16	; 0x10
    16c8:	9f 5f       	subi	r25, 0xFF	; 255
    16ca:	9f 73       	andi	r25, 0x3F	; 63
    16cc:	90 8b       	std	Z+16, r25	; 0x10
    16ce:	90 e0       	ldi	r25, 0x00	; 0
    16d0:	08 95       	ret
    16d2:	8f ef       	ldi	r24, 0xFF	; 255
    16d4:	9f ef       	ldi	r25, 0xFF	; 255
    16d6:	08 95       	ret

000016d8 <_ZN14HardwareSerial17availableForWriteEv>:
    16d8:	fc 01       	movw	r30, r24
    16da:	21 89       	ldd	r18, Z+17	; 0x11
    16dc:	32 89       	ldd	r19, Z+18	; 0x12
    16de:	23 17       	cp	r18, r19
    16e0:	38 f0       	brcs	.+14     	; 0x16f0 <_ZN14HardwareSerial17availableForWriteEv+0x18>
    16e2:	8f e3       	ldi	r24, 0x3F	; 63
    16e4:	90 e0       	ldi	r25, 0x00	; 0
    16e6:	82 1b       	sub	r24, r18
    16e8:	91 09       	sbc	r25, r1
    16ea:	83 0f       	add	r24, r19
    16ec:	91 1d       	adc	r25, r1
    16ee:	08 95       	ret
    16f0:	83 2f       	mov	r24, r19
    16f2:	90 e0       	ldi	r25, 0x00	; 0
    16f4:	82 1b       	sub	r24, r18
    16f6:	91 09       	sbc	r25, r1
    16f8:	01 97       	sbiw	r24, 0x01	; 1
    16fa:	08 95       	ret

000016fc <_ZN14HardwareSerial17_tx_udr_empty_irqEv>:
#endif

// Actual interrupt handlers //////////////////////////////////////////////////////////////

void HardwareSerial::_tx_udr_empty_irq(void)
{
    16fc:	fc 01       	movw	r30, r24
	// If interrupts are enabled, there must be more data in the output
	// buffer. Send the next byte
	unsigned char c = _tx_buffer[_tx_buffer_tail];
    16fe:	82 89       	ldd	r24, Z+18	; 0x12
    1700:	df 01       	movw	r26, r30
    1702:	a8 0f       	add	r26, r24
    1704:	b1 1d       	adc	r27, r1
    1706:	ad 5a       	subi	r26, 0xAD	; 173
    1708:	bf 4f       	sbci	r27, 0xFF	; 255
    170a:	8c 91       	ld	r24, X
	_tx_buffer_tail = (_tx_buffer_tail + 1) % SERIAL_TX_BUFFER_SIZE;
    170c:	22 89       	ldd	r18, Z+18	; 0x12
    170e:	30 e0       	ldi	r19, 0x00	; 0
    1710:	2f 5f       	subi	r18, 0xFF	; 255
    1712:	3f 4f       	sbci	r19, 0xFF	; 255
    1714:	2f 73       	andi	r18, 0x3F	; 63
    1716:	30 78       	andi	r19, 0x80	; 128
    1718:	33 23       	and	r19, r19
    171a:	34 f4       	brge	.+12     	; 0x1728 <_ZN14HardwareSerial17_tx_udr_empty_irqEv+0x2c>
    171c:	21 50       	subi	r18, 0x01	; 1
    171e:	31 09       	sbc	r19, r1
    1720:	20 6c       	ori	r18, 0xC0	; 192
    1722:	3f 6f       	ori	r19, 0xFF	; 255
    1724:	2f 5f       	subi	r18, 0xFF	; 255
    1726:	3f 4f       	sbci	r19, 0xFF	; 255
    1728:	22 8b       	std	Z+18, r18	; 0x12

	*_udr = c;
    172a:	a4 85       	ldd	r26, Z+12	; 0x0c
    172c:	b5 85       	ldd	r27, Z+13	; 0x0d
    172e:	8c 93       	st	X, r24
	// location". This makes sure flush() won't return until the bytes
	// actually got written. Other r/w bits are preserved, and zeroes
	// written to the rest.

	#ifdef MPCM0
	*_ucsra = ((*_ucsra) & ((1 << U2X0) | (1 << MPCM0))) | (1 << TXC0);
    1730:	a6 81       	ldd	r26, Z+6	; 0x06
    1732:	b7 81       	ldd	r27, Z+7	; 0x07
    1734:	8c 91       	ld	r24, X
    1736:	83 70       	andi	r24, 0x03	; 3
    1738:	80 64       	ori	r24, 0x40	; 64
    173a:	8c 93       	st	X, r24
	#else
	*_ucsra = ((*_ucsra) & ((1 << U2X0) | (1 << TXC0)));
	#endif

	if (_tx_buffer_head == _tx_buffer_tail) {
    173c:	91 89       	ldd	r25, Z+17	; 0x11
    173e:	82 89       	ldd	r24, Z+18	; 0x12
    1740:	98 13       	cpse	r25, r24
    1742:	06 c0       	rjmp	.+12     	; 0x1750 <_ZN14HardwareSerial17_tx_udr_empty_irqEv+0x54>
		// Buffer empty, so disable interrupts
		cbi(*_ucsrb, UDRIE0);
    1744:	00 84       	ldd	r0, Z+8	; 0x08
    1746:	f1 85       	ldd	r31, Z+9	; 0x09
    1748:	e0 2d       	mov	r30, r0
    174a:	80 81       	ld	r24, Z
    174c:	8f 7d       	andi	r24, 0xDF	; 223
    174e:	80 83       	st	Z, r24
    1750:	08 95       	ret

00001752 <_ZN14HardwareSerial5flushEv>:
	if (head >= tail) return SERIAL_TX_BUFFER_SIZE - 1 - head + tail;
	return tail - head - 1;
}

void HardwareSerial::flush()
{
    1752:	cf 93       	push	r28
    1754:	df 93       	push	r29
    1756:	ec 01       	movw	r28, r24
	// If we have never written a byte, no need to flush. This special
	// case is needed since there is no way to force the TXC (transmit
	// complete) bit to 1 during initialization
	if (!_written)
    1758:	8e 85       	ldd	r24, Y+14	; 0x0e
    175a:	88 23       	and	r24, r24
    175c:	d1 f0       	breq	.+52     	; 0x1792 <_ZN14HardwareSerial5flushEv+0x40>
	return;

	while (bit_is_set(*_ucsrb, UDRIE0) || bit_is_clear(*_ucsra, TXC0)) {
    175e:	e8 85       	ldd	r30, Y+8	; 0x08
    1760:	f9 85       	ldd	r31, Y+9	; 0x09
    1762:	80 81       	ld	r24, Z
    1764:	85 fd       	sbrc	r24, 5
    1766:	05 c0       	rjmp	.+10     	; 0x1772 <_ZN14HardwareSerial5flushEv+0x20>
    1768:	ae 81       	ldd	r26, Y+6	; 0x06
    176a:	bf 81       	ldd	r27, Y+7	; 0x07
    176c:	8c 91       	ld	r24, X
    176e:	86 fd       	sbrc	r24, 6
    1770:	10 c0       	rjmp	.+32     	; 0x1792 <_ZN14HardwareSerial5flushEv+0x40>
		if (bit_is_clear(SREG, SREG_I) && bit_is_set(*_ucsrb, UDRIE0))
    1772:	0f b6       	in	r0, 0x3f	; 63
    1774:	07 fc       	sbrc	r0, 7
    1776:	f5 cf       	rjmp	.-22     	; 0x1762 <_ZN14HardwareSerial5flushEv+0x10>
    1778:	80 81       	ld	r24, Z
    177a:	85 ff       	sbrs	r24, 5
    177c:	f2 cf       	rjmp	.-28     	; 0x1762 <_ZN14HardwareSerial5flushEv+0x10>
    177e:	03 c0       	rjmp	.+6      	; 0x1786 <_ZN14HardwareSerial5flushEv+0x34>
		// Interrupts are globally disabled, but the DR empty
		// interrupt should be enabled, so poll the DR empty flag to
		// prevent deadlock
		if (bit_is_set(*_ucsra, UDRE0))
		_tx_udr_empty_irq();
    1780:	ce 01       	movw	r24, r28
    1782:	bc df       	rcall	.-136    	; 0x16fc <_ZN14HardwareSerial17_tx_udr_empty_irqEv>
    1784:	ec cf       	rjmp	.-40     	; 0x175e <_ZN14HardwareSerial5flushEv+0xc>
	while (bit_is_set(*_ucsrb, UDRIE0) || bit_is_clear(*_ucsra, TXC0)) {
		if (bit_is_clear(SREG, SREG_I) && bit_is_set(*_ucsrb, UDRIE0))
		// Interrupts are globally disabled, but the DR empty
		// interrupt should be enabled, so poll the DR empty flag to
		// prevent deadlock
		if (bit_is_set(*_ucsra, UDRE0))
    1786:	ae 81       	ldd	r26, Y+6	; 0x06
    1788:	bf 81       	ldd	r27, Y+7	; 0x07
    178a:	8c 91       	ld	r24, X
    178c:	85 ff       	sbrs	r24, 5
    178e:	e9 cf       	rjmp	.-46     	; 0x1762 <_ZN14HardwareSerial5flushEv+0x10>
    1790:	f7 cf       	rjmp	.-18     	; 0x1780 <_ZN14HardwareSerial5flushEv+0x2e>
		_tx_udr_empty_irq();
	}
	// If we get here, nothing is queued anymore (DRIE is disabled) and
	// the hardware finished tranmission (TXC is set).
}
    1792:	df 91       	pop	r29
    1794:	cf 91       	pop	r28
    1796:	08 95       	ret

00001798 <_ZN14HardwareSerial5writeEh>:

size_t HardwareSerial::write(uint8_t c)
{
    1798:	0f 93       	push	r16
    179a:	1f 93       	push	r17
    179c:	cf 93       	push	r28
    179e:	df 93       	push	r29
    17a0:	ec 01       	movw	r28, r24
	_written = true;
    17a2:	81 e0       	ldi	r24, 0x01	; 1
    17a4:	8e 87       	std	Y+14, r24	; 0x0e
	// If the buffer and the data register is empty, just write the byte
	// to the data register and be done. This shortcut helps
	// significantly improve the effective datarate at high (>
	// 500kbit/s) bitrates, where interrupt overhead becomes a slowdown.
	if (_tx_buffer_head == _tx_buffer_tail && bit_is_set(*_ucsra, UDRE0)) {
    17a6:	99 89       	ldd	r25, Y+17	; 0x11
    17a8:	8a 89       	ldd	r24, Y+18	; 0x12
    17aa:	98 13       	cpse	r25, r24
    17ac:	25 c0       	rjmp	.+74     	; 0x17f8 <_ZN14HardwareSerial5writeEh+0x60>
    17ae:	ee 81       	ldd	r30, Y+6	; 0x06
    17b0:	ff 81       	ldd	r31, Y+7	; 0x07
    17b2:	80 81       	ld	r24, Z
    17b4:	85 fd       	sbrc	r24, 5
    17b6:	31 c0       	rjmp	.+98     	; 0x181a <_ZN14HardwareSerial5writeEh+0x82>
    17b8:	1f c0       	rjmp	.+62     	; 0x17f8 <_ZN14HardwareSerial5writeEh+0x60>
	}
	tx_buffer_index_t i = (_tx_buffer_head + 1) % SERIAL_TX_BUFFER_SIZE;
	
	// If the output buffer is full, there's nothing for it other than to
	// wait for the interrupt handler to empty it a bit
	while (i == _tx_buffer_tail) {
    17ba:	8a 89       	ldd	r24, Y+18	; 0x12
    17bc:	18 13       	cpse	r17, r24
    17be:	0b c0       	rjmp	.+22     	; 0x17d6 <_ZN14HardwareSerial5writeEh+0x3e>
		if (bit_is_clear(SREG, SREG_I)) {
    17c0:	0f b6       	in	r0, 0x3f	; 63
    17c2:	07 fc       	sbrc	r0, 7
    17c4:	fa cf       	rjmp	.-12     	; 0x17ba <_ZN14HardwareSerial5writeEh+0x22>
			// Interrupts are disabled, so we'll have to poll the data
			// register empty flag ourselves. If it is set, pretend an
			// interrupt has happened and call the handler to free up
			// space for us.
			if(bit_is_set(*_ucsra, UDRE0))
    17c6:	ee 81       	ldd	r30, Y+6	; 0x06
    17c8:	ff 81       	ldd	r31, Y+7	; 0x07
    17ca:	80 81       	ld	r24, Z
    17cc:	85 ff       	sbrs	r24, 5
    17ce:	f5 cf       	rjmp	.-22     	; 0x17ba <_ZN14HardwareSerial5writeEh+0x22>
			_tx_udr_empty_irq();
    17d0:	ce 01       	movw	r24, r28
    17d2:	94 df       	rcall	.-216    	; 0x16fc <_ZN14HardwareSerial17_tx_udr_empty_irqEv>
    17d4:	f2 cf       	rjmp	.-28     	; 0x17ba <_ZN14HardwareSerial5writeEh+0x22>
			} else {
			// nop, the interrupt handler will free up space for us
		}
	}

	_tx_buffer[_tx_buffer_head] = c;
    17d6:	89 89       	ldd	r24, Y+17	; 0x11
    17d8:	fe 01       	movw	r30, r28
    17da:	e8 0f       	add	r30, r24
    17dc:	f1 1d       	adc	r31, r1
    17de:	ed 5a       	subi	r30, 0xAD	; 173
    17e0:	ff 4f       	sbci	r31, 0xFF	; 255
    17e2:	00 83       	st	Z, r16

	// make atomic to prevent execution of ISR between setting the
	// head pointer and setting the interrupt flag resulting in buffer
	// retransmission
	ATOMIC_BLOCK(ATOMIC_RESTORESTATE) {
    17e4:	9f b7       	in	r25, 0x3f	; 63
    return 1;
}

static __inline__ uint8_t __iCliRetVal(void)
{
    cli();
    17e6:	f8 94       	cli
		_tx_buffer_head = i;
    17e8:	19 8b       	std	Y+17, r17	; 0x11
		sbi(*_ucsrb, UDRIE0);
    17ea:	e8 85       	ldd	r30, Y+8	; 0x08
    17ec:	f9 85       	ldd	r31, Y+9	; 0x09
    17ee:	80 81       	ld	r24, Z
    17f0:	80 62       	ori	r24, 0x20	; 32
    17f2:	80 83       	st	Z, r24
    (void)__s;
}

static __inline__ void __iRestore(const  uint8_t *__s)
{
    SREG = *__s;
    17f4:	9f bf       	out	0x3f, r25	; 63
	}
	
	return 1;
    17f6:	1d c0       	rjmp	.+58     	; 0x1832 <_ZN14HardwareSerial5writeEh+0x9a>
			*_ucsra = ((*_ucsra) & ((1 << U2X0) | (1 << TXC0)));
			#endif
		}
		return 1;
	}
	tx_buffer_index_t i = (_tx_buffer_head + 1) % SERIAL_TX_BUFFER_SIZE;
    17f8:	29 89       	ldd	r18, Y+17	; 0x11
    17fa:	30 e0       	ldi	r19, 0x00	; 0
    17fc:	2f 5f       	subi	r18, 0xFF	; 255
    17fe:	3f 4f       	sbci	r19, 0xFF	; 255
    1800:	2f 73       	andi	r18, 0x3F	; 63
    1802:	30 78       	andi	r19, 0x80	; 128
    1804:	33 23       	and	r19, r19
    1806:	34 f4       	brge	.+12     	; 0x1814 <_ZN14HardwareSerial5writeEh+0x7c>
    1808:	21 50       	subi	r18, 0x01	; 1
    180a:	31 09       	sbc	r19, r1
    180c:	20 6c       	ori	r18, 0xC0	; 192
    180e:	3f 6f       	ori	r19, 0xFF	; 255
    1810:	2f 5f       	subi	r18, 0xFF	; 255
    1812:	3f 4f       	sbci	r19, 0xFF	; 255
    1814:	06 2f       	mov	r16, r22
    1816:	12 2f       	mov	r17, r18
    1818:	d0 cf       	rjmp	.-96     	; 0x17ba <_ZN14HardwareSerial5writeEh+0x22>
		// So writing UDR must happen first.
		// Writing UDR and clearing TC must be done atomically, otherwise
		// interrupts might delay the TXC clear so the byte written to UDR
		// is transmitted (setting TXC) before clearing TXC. Then TXC will
		// be cleared when no bytes are left, causing flush() to hang
		ATOMIC_BLOCK(ATOMIC_RESTORESTATE) {
    181a:	9f b7       	in	r25, 0x3f	; 63
    return 1;
}

static __inline__ uint8_t __iCliRetVal(void)
{
    cli();
    181c:	f8 94       	cli
			*_udr = c;
    181e:	ec 85       	ldd	r30, Y+12	; 0x0c
    1820:	fd 85       	ldd	r31, Y+13	; 0x0d
    1822:	60 83       	st	Z, r22
			#ifdef MPCM0
			*_ucsra = ((*_ucsra) & ((1 << U2X0) | (1 << MPCM0))) | (1 << TXC0);
    1824:	ee 81       	ldd	r30, Y+6	; 0x06
    1826:	ff 81       	ldd	r31, Y+7	; 0x07
    1828:	80 81       	ld	r24, Z
    182a:	83 70       	andi	r24, 0x03	; 3
    182c:	80 64       	ori	r24, 0x40	; 64
    182e:	80 83       	st	Z, r24
    (void)__s;
}

static __inline__ void __iRestore(const  uint8_t *__s)
{
    SREG = *__s;
    1830:	9f bf       	out	0x3f, r25	; 63
		_tx_buffer_head = i;
		sbi(*_ucsrb, UDRIE0);
	}
	
	return 1;
}
    1832:	81 e0       	ldi	r24, 0x01	; 1
    1834:	90 e0       	ldi	r25, 0x00	; 0
    1836:	df 91       	pop	r29
    1838:	cf 91       	pop	r28
    183a:	1f 91       	pop	r17
    183c:	0f 91       	pop	r16
    183e:	08 95       	ret

00001840 <_ZN14HardwareSerial5beginEmh>:
}

// Public Methods //////////////////////////////////////////////////////////////

void HardwareSerial::begin(unsigned long baud, uint8_t config)
{
    1840:	cf 92       	push	r12
    1842:	df 92       	push	r13
    1844:	ef 92       	push	r14
    1846:	ff 92       	push	r15
    1848:	1f 93       	push	r17
    184a:	cf 93       	push	r28
    184c:	df 93       	push	r29
    184e:	ec 01       	movw	r28, r24
    1850:	6a 01       	movw	r12, r20
    1852:	7b 01       	movw	r14, r22
    1854:	12 2f       	mov	r17, r18
	// Try u2x mode first
	uint16_t baud_setting = (F_CPU / 4 / baud - 1) / 2;
	*_ucsra = 1 << U2X0;
    1856:	ee 81       	ldd	r30, Y+6	; 0x06
    1858:	ff 81       	ldd	r31, Y+7	; 0x07
    185a:	82 e0       	ldi	r24, 0x02	; 2
    185c:	80 83       	st	Z, r24
	// hardcoded exception for 57600 for compatibility with the bootloader
	// shipped with the Duemilanove and previous boards and the firmware
	// on the 8U2 on the Uno and Mega 2560. Also, The baud_setting cannot
	// be > 4095, so switch back to non-u2x mode if the baud rate is too
	// low.
	if (((F_CPU == 16000000UL) && (baud == 57600)) || (baud_setting >4095))
    185e:	41 15       	cp	r20, r1
    1860:	51 4e       	sbci	r21, 0xE1	; 225
    1862:	61 05       	cpc	r22, r1
    1864:	71 05       	cpc	r23, r1
    1866:	a9 f0       	breq	.+42     	; 0x1892 <_ZN14HardwareSerial5beginEmh+0x52>
// Public Methods //////////////////////////////////////////////////////////////

void HardwareSerial::begin(unsigned long baud, uint8_t config)
{
	// Try u2x mode first
	uint16_t baud_setting = (F_CPU / 4 / baud - 1) / 2;
    1868:	60 e0       	ldi	r22, 0x00	; 0
    186a:	79 e0       	ldi	r23, 0x09	; 9
    186c:	8d e3       	ldi	r24, 0x3D	; 61
    186e:	90 e0       	ldi	r25, 0x00	; 0
    1870:	a7 01       	movw	r20, r14
    1872:	96 01       	movw	r18, r12
    1874:	bb d7       	rcall	.+3958   	; 0x27ec <__udivmodsi4>
    1876:	da 01       	movw	r26, r20
    1878:	c9 01       	movw	r24, r18
    187a:	01 97       	sbiw	r24, 0x01	; 1
    187c:	a1 09       	sbc	r26, r1
    187e:	b1 09       	sbc	r27, r1
    1880:	b6 95       	lsr	r27
    1882:	a7 95       	ror	r26
    1884:	97 95       	ror	r25
    1886:	87 95       	ror	r24
    1888:	9c 01       	movw	r18, r24
	// hardcoded exception for 57600 for compatibility with the bootloader
	// shipped with the Duemilanove and previous boards and the firmware
	// on the 8U2 on the Uno and Mega 2560. Also, The baud_setting cannot
	// be > 4095, so switch back to non-u2x mode if the baud rate is too
	// low.
	if (((F_CPU == 16000000UL) && (baud == 57600)) || (baud_setting >4095))
    188a:	21 15       	cp	r18, r1
    188c:	80 e1       	ldi	r24, 0x10	; 16
    188e:	38 07       	cpc	r19, r24
    1890:	a0 f0       	brcs	.+40     	; 0x18ba <_ZN14HardwareSerial5beginEmh+0x7a>
	{
		*_ucsra = 0;
    1892:	ee 81       	ldd	r30, Y+6	; 0x06
    1894:	ff 81       	ldd	r31, Y+7	; 0x07
    1896:	10 82       	st	Z, r1
		baud_setting = (F_CPU / 8 / baud - 1) / 2;
    1898:	60 e8       	ldi	r22, 0x80	; 128
    189a:	74 e8       	ldi	r23, 0x84	; 132
    189c:	8e e1       	ldi	r24, 0x1E	; 30
    189e:	90 e0       	ldi	r25, 0x00	; 0
    18a0:	a7 01       	movw	r20, r14
    18a2:	96 01       	movw	r18, r12
    18a4:	a3 d7       	rcall	.+3910   	; 0x27ec <__udivmodsi4>
    18a6:	da 01       	movw	r26, r20
    18a8:	c9 01       	movw	r24, r18
    18aa:	01 97       	sbiw	r24, 0x01	; 1
    18ac:	a1 09       	sbc	r26, r1
    18ae:	b1 09       	sbc	r27, r1
    18b0:	b6 95       	lsr	r27
    18b2:	a7 95       	ror	r26
    18b4:	97 95       	ror	r25
    18b6:	87 95       	ror	r24
    18b8:	9c 01       	movw	r18, r24
	}

	// assign the baud_setting, a.k.a. ubrr (USART Baud Rate Register)
	*_ubrrh = baud_setting >> 8;
    18ba:	ea 81       	ldd	r30, Y+2	; 0x02
    18bc:	fb 81       	ldd	r31, Y+3	; 0x03
    18be:	30 83       	st	Z, r19
	*_ubrrl = baud_setting;
    18c0:	ec 81       	ldd	r30, Y+4	; 0x04
    18c2:	fd 81       	ldd	r31, Y+5	; 0x05
    18c4:	20 83       	st	Z, r18

	_written = false;
    18c6:	1e 86       	std	Y+14, r1	; 0x0e

	//set the data bits, parity, and stop bits
	#if defined(__AVR_ATmega8__)
	config |= 0x80; // select UCSRC register (shared with UBRRH)
	#endif
	*_ucsrc = config;
    18c8:	ea 85       	ldd	r30, Y+10	; 0x0a
    18ca:	fb 85       	ldd	r31, Y+11	; 0x0b
    18cc:	10 83       	st	Z, r17
	
	sbi(*_ucsrb, RXEN0);
    18ce:	e8 85       	ldd	r30, Y+8	; 0x08
    18d0:	f9 85       	ldd	r31, Y+9	; 0x09
    18d2:	80 81       	ld	r24, Z
    18d4:	80 61       	ori	r24, 0x10	; 16
    18d6:	80 83       	st	Z, r24
	sbi(*_ucsrb, TXEN0);
    18d8:	e8 85       	ldd	r30, Y+8	; 0x08
    18da:	f9 85       	ldd	r31, Y+9	; 0x09
    18dc:	80 81       	ld	r24, Z
    18de:	88 60       	ori	r24, 0x08	; 8
    18e0:	80 83       	st	Z, r24
	sbi(*_ucsrb, RXCIE0);
    18e2:	e8 85       	ldd	r30, Y+8	; 0x08
    18e4:	f9 85       	ldd	r31, Y+9	; 0x09
    18e6:	80 81       	ld	r24, Z
    18e8:	80 68       	ori	r24, 0x80	; 128
    18ea:	80 83       	st	Z, r24
	cbi(*_ucsrb, UDRIE0);
    18ec:	e8 85       	ldd	r30, Y+8	; 0x08
    18ee:	f9 85       	ldd	r31, Y+9	; 0x09
    18f0:	80 81       	ld	r24, Z
    18f2:	8f 7d       	andi	r24, 0xDF	; 223
    18f4:	80 83       	st	Z, r24
}
    18f6:	df 91       	pop	r29
    18f8:	cf 91       	pop	r28
    18fa:	1f 91       	pop	r17
    18fc:	ff 90       	pop	r15
    18fe:	ef 90       	pop	r14
    1900:	df 90       	pop	r13
    1902:	cf 90       	pop	r12
    1904:	08 95       	ret

00001906 <_ZN5Print17availableForWriteEv>:

// Function that can be weakly referenced by serialEventRun to prevent
// pulling in this file if it's not otherwise used.
bool Serial0_available() {
  return Serial.available();
}
    1906:	80 e0       	ldi	r24, 0x00	; 0
    1908:	90 e0       	ldi	r25, 0x00	; 0
    190a:	08 95       	ret

0000190c <__vector_25>:
    190c:	1f 92       	push	r1
    190e:	0f 92       	push	r0
    1910:	0f b6       	in	r0, 0x3f	; 63
    1912:	0f 92       	push	r0
    1914:	11 24       	eor	r1, r1
    1916:	0b b6       	in	r0, 0x3b	; 59
    1918:	0f 92       	push	r0
    191a:	2f 93       	push	r18
    191c:	8f 93       	push	r24
    191e:	9f 93       	push	r25
    1920:	af 93       	push	r26
    1922:	bf 93       	push	r27
    1924:	ef 93       	push	r30
    1926:	ff 93       	push	r31
    1928:	e0 91 57 05 	lds	r30, 0x0557	; 0x800557 <Serial+0x6>
    192c:	f0 91 58 05 	lds	r31, 0x0558	; 0x800558 <Serial+0x7>
    1930:	80 81       	ld	r24, Z
    1932:	82 fd       	sbrc	r24, 2
    1934:	14 c0       	rjmp	.+40     	; 0x195e <__vector_25+0x52>
    1936:	e1 e5       	ldi	r30, 0x51	; 81
    1938:	f5 e0       	ldi	r31, 0x05	; 5
    193a:	a4 85       	ldd	r26, Z+12	; 0x0c
    193c:	b5 85       	ldd	r27, Z+13	; 0x0d
    193e:	2c 91       	ld	r18, X
    1940:	87 85       	ldd	r24, Z+15	; 0x0f
    1942:	8f 5f       	subi	r24, 0xFF	; 255
    1944:	8f 70       	andi	r24, 0x0F	; 15
    1946:	90 89       	ldd	r25, Z+16	; 0x10
    1948:	89 17       	cp	r24, r25
    194a:	71 f0       	breq	.+28     	; 0x1968 <__vector_25+0x5c>
    194c:	df 01       	movw	r26, r30
    194e:	e7 85       	ldd	r30, Z+15	; 0x0f
    1950:	f0 e0       	ldi	r31, 0x00	; 0
    1952:	ef 5a       	subi	r30, 0xAF	; 175
    1954:	fa 4f       	sbci	r31, 0xFA	; 250
    1956:	23 8b       	std	Z+19, r18	; 0x13
    1958:	1f 96       	adiw	r26, 0x0f	; 15
    195a:	8c 93       	st	X, r24
    195c:	05 c0       	rjmp	.+10     	; 0x1968 <__vector_25+0x5c>
    195e:	e0 91 5d 05 	lds	r30, 0x055D	; 0x80055d <Serial+0xc>
    1962:	f0 91 5e 05 	lds	r31, 0x055E	; 0x80055e <Serial+0xd>
    1966:	80 81       	ld	r24, Z
    1968:	ff 91       	pop	r31
    196a:	ef 91       	pop	r30
    196c:	bf 91       	pop	r27
    196e:	af 91       	pop	r26
    1970:	9f 91       	pop	r25
    1972:	8f 91       	pop	r24
    1974:	2f 91       	pop	r18
    1976:	0f 90       	pop	r0
    1978:	0b be       	out	0x3b, r0	; 59
    197a:	0f 90       	pop	r0
    197c:	0f be       	out	0x3f, r0	; 63
    197e:	0f 90       	pop	r0
    1980:	1f 90       	pop	r1
    1982:	18 95       	reti

00001984 <__vector_26>:
    1984:	1f 92       	push	r1
    1986:	0f 92       	push	r0
    1988:	0f b6       	in	r0, 0x3f	; 63
    198a:	0f 92       	push	r0
    198c:	11 24       	eor	r1, r1
    198e:	0b b6       	in	r0, 0x3b	; 59
    1990:	0f 92       	push	r0
    1992:	2f 93       	push	r18
    1994:	3f 93       	push	r19
    1996:	4f 93       	push	r20
    1998:	5f 93       	push	r21
    199a:	6f 93       	push	r22
    199c:	7f 93       	push	r23
    199e:	8f 93       	push	r24
    19a0:	9f 93       	push	r25
    19a2:	af 93       	push	r26
    19a4:	bf 93       	push	r27
    19a6:	ef 93       	push	r30
    19a8:	ff 93       	push	r31
    19aa:	81 e5       	ldi	r24, 0x51	; 81
    19ac:	95 e0       	ldi	r25, 0x05	; 5
    19ae:	a6 de       	rcall	.-692    	; 0x16fc <_ZN14HardwareSerial17_tx_udr_empty_irqEv>
    19b0:	ff 91       	pop	r31
    19b2:	ef 91       	pop	r30
    19b4:	bf 91       	pop	r27
    19b6:	af 91       	pop	r26
    19b8:	9f 91       	pop	r25
    19ba:	8f 91       	pop	r24
    19bc:	7f 91       	pop	r23
    19be:	6f 91       	pop	r22
    19c0:	5f 91       	pop	r21
    19c2:	4f 91       	pop	r20
    19c4:	3f 91       	pop	r19
    19c6:	2f 91       	pop	r18
    19c8:	0f 90       	pop	r0
    19ca:	0b be       	out	0x3b, r0	; 59
    19cc:	0f 90       	pop	r0
    19ce:	0f be       	out	0x3f, r0	; 63
    19d0:	0f 90       	pop	r0
    19d2:	1f 90       	pop	r1
    19d4:	18 95       	reti

000019d6 <_GLOBAL__sub_I___vector_25>:
volatile uint8_t *ucsrc, volatile uint8_t *udr) :
_ubrrh(ubrrh), _ubrrl(ubrrl),
_ucsra(ucsra), _ucsrb(ucsrb), _ucsrc(ucsrc),
_udr(udr),
_rx_buffer_head(0), _rx_buffer_tail(0),
_tx_buffer_head(0), _tx_buffer_tail(0)
    19d6:	e1 e5       	ldi	r30, 0x51	; 81
    19d8:	f5 e0       	ldi	r31, 0x05	; 5
    19da:	8e ea       	ldi	r24, 0xAE	; 174
    19dc:	92 e0       	ldi	r25, 0x02	; 2
    19de:	91 83       	std	Z+1, r25	; 0x01
    19e0:	80 83       	st	Z, r24
    19e2:	85 ec       	ldi	r24, 0xC5	; 197
    19e4:	90 e0       	ldi	r25, 0x00	; 0
    19e6:	93 83       	std	Z+3, r25	; 0x03
    19e8:	82 83       	std	Z+2, r24	; 0x02
    19ea:	84 ec       	ldi	r24, 0xC4	; 196
    19ec:	90 e0       	ldi	r25, 0x00	; 0
    19ee:	95 83       	std	Z+5, r25	; 0x05
    19f0:	84 83       	std	Z+4, r24	; 0x04
    19f2:	80 ec       	ldi	r24, 0xC0	; 192
    19f4:	90 e0       	ldi	r25, 0x00	; 0
    19f6:	97 83       	std	Z+7, r25	; 0x07
    19f8:	86 83       	std	Z+6, r24	; 0x06
    19fa:	81 ec       	ldi	r24, 0xC1	; 193
    19fc:	90 e0       	ldi	r25, 0x00	; 0
    19fe:	91 87       	std	Z+9, r25	; 0x09
    1a00:	80 87       	std	Z+8, r24	; 0x08
    1a02:	82 ec       	ldi	r24, 0xC2	; 194
    1a04:	90 e0       	ldi	r25, 0x00	; 0
    1a06:	93 87       	std	Z+11, r25	; 0x0b
    1a08:	82 87       	std	Z+10, r24	; 0x0a
    1a0a:	86 ec       	ldi	r24, 0xC6	; 198
    1a0c:	90 e0       	ldi	r25, 0x00	; 0
    1a0e:	95 87       	std	Z+13, r25	; 0x0d
    1a10:	84 87       	std	Z+12, r24	; 0x0c
    1a12:	17 86       	std	Z+15, r1	; 0x0f
    1a14:	10 8a       	std	Z+16, r1	; 0x10
    1a16:	11 8a       	std	Z+17, r1	; 0x11
    1a18:	12 8a       	std	Z+18, r1	; 0x12
    1a1a:	08 95       	ret

00001a1c <__vector_36>:

// Function that can be weakly referenced by serialEventRun to prevent
// pulling in this file if it's not otherwise used.
bool Serial1_available() {
  return Serial1.available();
}
    1a1c:	1f 92       	push	r1
    1a1e:	0f 92       	push	r0
    1a20:	0f b6       	in	r0, 0x3f	; 63
    1a22:	0f 92       	push	r0
    1a24:	11 24       	eor	r1, r1
    1a26:	0b b6       	in	r0, 0x3b	; 59
    1a28:	0f 92       	push	r0
    1a2a:	2f 93       	push	r18
    1a2c:	8f 93       	push	r24
    1a2e:	9f 93       	push	r25
    1a30:	af 93       	push	r26
    1a32:	bf 93       	push	r27
    1a34:	ef 93       	push	r30
    1a36:	ff 93       	push	r31
    1a38:	e0 91 8a 05 	lds	r30, 0x058A	; 0x80058a <Serial1+0x6>
    1a3c:	f0 91 8b 05 	lds	r31, 0x058B	; 0x80058b <Serial1+0x7>
    1a40:	80 81       	ld	r24, Z
    1a42:	82 fd       	sbrc	r24, 2
    1a44:	14 c0       	rjmp	.+40     	; 0x1a6e <__vector_36+0x52>
    1a46:	e4 e8       	ldi	r30, 0x84	; 132
    1a48:	f5 e0       	ldi	r31, 0x05	; 5
    1a4a:	a4 85       	ldd	r26, Z+12	; 0x0c
    1a4c:	b5 85       	ldd	r27, Z+13	; 0x0d
    1a4e:	2c 91       	ld	r18, X
    1a50:	87 85       	ldd	r24, Z+15	; 0x0f
    1a52:	8f 5f       	subi	r24, 0xFF	; 255
    1a54:	8f 70       	andi	r24, 0x0F	; 15
    1a56:	90 89       	ldd	r25, Z+16	; 0x10
    1a58:	89 17       	cp	r24, r25
    1a5a:	71 f0       	breq	.+28     	; 0x1a78 <__vector_36+0x5c>
    1a5c:	df 01       	movw	r26, r30
    1a5e:	e7 85       	ldd	r30, Z+15	; 0x0f
    1a60:	f0 e0       	ldi	r31, 0x00	; 0
    1a62:	ec 57       	subi	r30, 0x7C	; 124
    1a64:	fa 4f       	sbci	r31, 0xFA	; 250
    1a66:	23 8b       	std	Z+19, r18	; 0x13
    1a68:	1f 96       	adiw	r26, 0x0f	; 15
    1a6a:	8c 93       	st	X, r24
    1a6c:	05 c0       	rjmp	.+10     	; 0x1a78 <__vector_36+0x5c>
    1a6e:	e0 91 90 05 	lds	r30, 0x0590	; 0x800590 <Serial1+0xc>
    1a72:	f0 91 91 05 	lds	r31, 0x0591	; 0x800591 <Serial1+0xd>
    1a76:	80 81       	ld	r24, Z
    1a78:	ff 91       	pop	r31
    1a7a:	ef 91       	pop	r30
    1a7c:	bf 91       	pop	r27
    1a7e:	af 91       	pop	r26
    1a80:	9f 91       	pop	r25
    1a82:	8f 91       	pop	r24
    1a84:	2f 91       	pop	r18
    1a86:	0f 90       	pop	r0
    1a88:	0b be       	out	0x3b, r0	; 59
    1a8a:	0f 90       	pop	r0
    1a8c:	0f be       	out	0x3f, r0	; 63
    1a8e:	0f 90       	pop	r0
    1a90:	1f 90       	pop	r1
    1a92:	18 95       	reti

00001a94 <__vector_37>:
    1a94:	1f 92       	push	r1
    1a96:	0f 92       	push	r0
    1a98:	0f b6       	in	r0, 0x3f	; 63
    1a9a:	0f 92       	push	r0
    1a9c:	11 24       	eor	r1, r1
    1a9e:	0b b6       	in	r0, 0x3b	; 59
    1aa0:	0f 92       	push	r0
    1aa2:	2f 93       	push	r18
    1aa4:	3f 93       	push	r19
    1aa6:	4f 93       	push	r20
    1aa8:	5f 93       	push	r21
    1aaa:	6f 93       	push	r22
    1aac:	7f 93       	push	r23
    1aae:	8f 93       	push	r24
    1ab0:	9f 93       	push	r25
    1ab2:	af 93       	push	r26
    1ab4:	bf 93       	push	r27
    1ab6:	ef 93       	push	r30
    1ab8:	ff 93       	push	r31
    1aba:	84 e8       	ldi	r24, 0x84	; 132
    1abc:	95 e0       	ldi	r25, 0x05	; 5
    1abe:	1e de       	rcall	.-964    	; 0x16fc <_ZN14HardwareSerial17_tx_udr_empty_irqEv>
    1ac0:	ff 91       	pop	r31
    1ac2:	ef 91       	pop	r30
    1ac4:	bf 91       	pop	r27
    1ac6:	af 91       	pop	r26
    1ac8:	9f 91       	pop	r25
    1aca:	8f 91       	pop	r24
    1acc:	7f 91       	pop	r23
    1ace:	6f 91       	pop	r22
    1ad0:	5f 91       	pop	r21
    1ad2:	4f 91       	pop	r20
    1ad4:	3f 91       	pop	r19
    1ad6:	2f 91       	pop	r18
    1ad8:	0f 90       	pop	r0
    1ada:	0b be       	out	0x3b, r0	; 59
    1adc:	0f 90       	pop	r0
    1ade:	0f be       	out	0x3f, r0	; 63
    1ae0:	0f 90       	pop	r0
    1ae2:	1f 90       	pop	r1
    1ae4:	18 95       	reti

00001ae6 <_GLOBAL__sub_I___vector_36>:
    1ae6:	e4 e8       	ldi	r30, 0x84	; 132
    1ae8:	f5 e0       	ldi	r31, 0x05	; 5
    1aea:	8e ea       	ldi	r24, 0xAE	; 174
    1aec:	92 e0       	ldi	r25, 0x02	; 2
    1aee:	91 83       	std	Z+1, r25	; 0x01
    1af0:	80 83       	st	Z, r24
    1af2:	8d ec       	ldi	r24, 0xCD	; 205
    1af4:	90 e0       	ldi	r25, 0x00	; 0
    1af6:	93 83       	std	Z+3, r25	; 0x03
    1af8:	82 83       	std	Z+2, r24	; 0x02
    1afa:	8c ec       	ldi	r24, 0xCC	; 204
    1afc:	90 e0       	ldi	r25, 0x00	; 0
    1afe:	95 83       	std	Z+5, r25	; 0x05
    1b00:	84 83       	std	Z+4, r24	; 0x04
    1b02:	88 ec       	ldi	r24, 0xC8	; 200
    1b04:	90 e0       	ldi	r25, 0x00	; 0
    1b06:	97 83       	std	Z+7, r25	; 0x07
    1b08:	86 83       	std	Z+6, r24	; 0x06
    1b0a:	89 ec       	ldi	r24, 0xC9	; 201
    1b0c:	90 e0       	ldi	r25, 0x00	; 0
    1b0e:	91 87       	std	Z+9, r25	; 0x09
    1b10:	80 87       	std	Z+8, r24	; 0x08
    1b12:	8a ec       	ldi	r24, 0xCA	; 202
    1b14:	90 e0       	ldi	r25, 0x00	; 0
    1b16:	93 87       	std	Z+11, r25	; 0x0b
    1b18:	82 87       	std	Z+10, r24	; 0x0a
    1b1a:	8e ec       	ldi	r24, 0xCE	; 206
    1b1c:	90 e0       	ldi	r25, 0x00	; 0
    1b1e:	95 87       	std	Z+13, r25	; 0x0d
    1b20:	84 87       	std	Z+12, r24	; 0x0c
    1b22:	17 86       	std	Z+15, r1	; 0x0f
    1b24:	10 8a       	std	Z+16, r1	; 0x10
    1b26:	11 8a       	std	Z+17, r1	; 0x11
    1b28:	12 8a       	std	Z+18, r1	; 0x12
    1b2a:	08 95       	ret

00001b2c <__vector_51>:

// Function that can be weakly referenced by serialEventRun to prevent
// pulling in this file if it's not otherwise used.
bool Serial2_available() {
  return Serial2.available();
}
    1b2c:	1f 92       	push	r1
    1b2e:	0f 92       	push	r0
    1b30:	0f b6       	in	r0, 0x3f	; 63
    1b32:	0f 92       	push	r0
    1b34:	11 24       	eor	r1, r1
    1b36:	0b b6       	in	r0, 0x3b	; 59
    1b38:	0f 92       	push	r0
    1b3a:	2f 93       	push	r18
    1b3c:	8f 93       	push	r24
    1b3e:	9f 93       	push	r25
    1b40:	af 93       	push	r26
    1b42:	bf 93       	push	r27
    1b44:	ef 93       	push	r30
    1b46:	ff 93       	push	r31
    1b48:	e0 91 bd 05 	lds	r30, 0x05BD	; 0x8005bd <Serial2+0x6>
    1b4c:	f0 91 be 05 	lds	r31, 0x05BE	; 0x8005be <Serial2+0x7>
    1b50:	80 81       	ld	r24, Z
    1b52:	82 fd       	sbrc	r24, 2
    1b54:	14 c0       	rjmp	.+40     	; 0x1b7e <__vector_51+0x52>
    1b56:	e7 eb       	ldi	r30, 0xB7	; 183
    1b58:	f5 e0       	ldi	r31, 0x05	; 5
    1b5a:	a4 85       	ldd	r26, Z+12	; 0x0c
    1b5c:	b5 85       	ldd	r27, Z+13	; 0x0d
    1b5e:	2c 91       	ld	r18, X
    1b60:	87 85       	ldd	r24, Z+15	; 0x0f
    1b62:	8f 5f       	subi	r24, 0xFF	; 255
    1b64:	8f 70       	andi	r24, 0x0F	; 15
    1b66:	90 89       	ldd	r25, Z+16	; 0x10
    1b68:	89 17       	cp	r24, r25
    1b6a:	71 f0       	breq	.+28     	; 0x1b88 <__vector_51+0x5c>
    1b6c:	df 01       	movw	r26, r30
    1b6e:	e7 85       	ldd	r30, Z+15	; 0x0f
    1b70:	f0 e0       	ldi	r31, 0x00	; 0
    1b72:	e9 54       	subi	r30, 0x49	; 73
    1b74:	fa 4f       	sbci	r31, 0xFA	; 250
    1b76:	23 8b       	std	Z+19, r18	; 0x13
    1b78:	1f 96       	adiw	r26, 0x0f	; 15
    1b7a:	8c 93       	st	X, r24
    1b7c:	05 c0       	rjmp	.+10     	; 0x1b88 <__vector_51+0x5c>
    1b7e:	e0 91 c3 05 	lds	r30, 0x05C3	; 0x8005c3 <Serial2+0xc>
    1b82:	f0 91 c4 05 	lds	r31, 0x05C4	; 0x8005c4 <Serial2+0xd>
    1b86:	80 81       	ld	r24, Z
    1b88:	ff 91       	pop	r31
    1b8a:	ef 91       	pop	r30
    1b8c:	bf 91       	pop	r27
    1b8e:	af 91       	pop	r26
    1b90:	9f 91       	pop	r25
    1b92:	8f 91       	pop	r24
    1b94:	2f 91       	pop	r18
    1b96:	0f 90       	pop	r0
    1b98:	0b be       	out	0x3b, r0	; 59
    1b9a:	0f 90       	pop	r0
    1b9c:	0f be       	out	0x3f, r0	; 63
    1b9e:	0f 90       	pop	r0
    1ba0:	1f 90       	pop	r1
    1ba2:	18 95       	reti

00001ba4 <__vector_52>:
    1ba4:	1f 92       	push	r1
    1ba6:	0f 92       	push	r0
    1ba8:	0f b6       	in	r0, 0x3f	; 63
    1baa:	0f 92       	push	r0
    1bac:	11 24       	eor	r1, r1
    1bae:	0b b6       	in	r0, 0x3b	; 59
    1bb0:	0f 92       	push	r0
    1bb2:	2f 93       	push	r18
    1bb4:	3f 93       	push	r19
    1bb6:	4f 93       	push	r20
    1bb8:	5f 93       	push	r21
    1bba:	6f 93       	push	r22
    1bbc:	7f 93       	push	r23
    1bbe:	8f 93       	push	r24
    1bc0:	9f 93       	push	r25
    1bc2:	af 93       	push	r26
    1bc4:	bf 93       	push	r27
    1bc6:	ef 93       	push	r30
    1bc8:	ff 93       	push	r31
    1bca:	87 eb       	ldi	r24, 0xB7	; 183
    1bcc:	95 e0       	ldi	r25, 0x05	; 5
    1bce:	96 dd       	rcall	.-1236   	; 0x16fc <_ZN14HardwareSerial17_tx_udr_empty_irqEv>
    1bd0:	ff 91       	pop	r31
    1bd2:	ef 91       	pop	r30
    1bd4:	bf 91       	pop	r27
    1bd6:	af 91       	pop	r26
    1bd8:	9f 91       	pop	r25
    1bda:	8f 91       	pop	r24
    1bdc:	7f 91       	pop	r23
    1bde:	6f 91       	pop	r22
    1be0:	5f 91       	pop	r21
    1be2:	4f 91       	pop	r20
    1be4:	3f 91       	pop	r19
    1be6:	2f 91       	pop	r18
    1be8:	0f 90       	pop	r0
    1bea:	0b be       	out	0x3b, r0	; 59
    1bec:	0f 90       	pop	r0
    1bee:	0f be       	out	0x3f, r0	; 63
    1bf0:	0f 90       	pop	r0
    1bf2:	1f 90       	pop	r1
    1bf4:	18 95       	reti

00001bf6 <_GLOBAL__sub_I___vector_51>:
    1bf6:	e7 eb       	ldi	r30, 0xB7	; 183
    1bf8:	f5 e0       	ldi	r31, 0x05	; 5
    1bfa:	8e ea       	ldi	r24, 0xAE	; 174
    1bfc:	92 e0       	ldi	r25, 0x02	; 2
    1bfe:	91 83       	std	Z+1, r25	; 0x01
    1c00:	80 83       	st	Z, r24
    1c02:	85 ed       	ldi	r24, 0xD5	; 213
    1c04:	90 e0       	ldi	r25, 0x00	; 0
    1c06:	93 83       	std	Z+3, r25	; 0x03
    1c08:	82 83       	std	Z+2, r24	; 0x02
    1c0a:	84 ed       	ldi	r24, 0xD4	; 212
    1c0c:	90 e0       	ldi	r25, 0x00	; 0
    1c0e:	95 83       	std	Z+5, r25	; 0x05
    1c10:	84 83       	std	Z+4, r24	; 0x04
    1c12:	80 ed       	ldi	r24, 0xD0	; 208
    1c14:	90 e0       	ldi	r25, 0x00	; 0
    1c16:	97 83       	std	Z+7, r25	; 0x07
    1c18:	86 83       	std	Z+6, r24	; 0x06
    1c1a:	81 ed       	ldi	r24, 0xD1	; 209
    1c1c:	90 e0       	ldi	r25, 0x00	; 0
    1c1e:	91 87       	std	Z+9, r25	; 0x09
    1c20:	80 87       	std	Z+8, r24	; 0x08
    1c22:	82 ed       	ldi	r24, 0xD2	; 210
    1c24:	90 e0       	ldi	r25, 0x00	; 0
    1c26:	93 87       	std	Z+11, r25	; 0x0b
    1c28:	82 87       	std	Z+10, r24	; 0x0a
    1c2a:	86 ed       	ldi	r24, 0xD6	; 214
    1c2c:	90 e0       	ldi	r25, 0x00	; 0
    1c2e:	95 87       	std	Z+13, r25	; 0x0d
    1c30:	84 87       	std	Z+12, r24	; 0x0c
    1c32:	17 86       	std	Z+15, r1	; 0x0f
    1c34:	10 8a       	std	Z+16, r1	; 0x10
    1c36:	11 8a       	std	Z+17, r1	; 0x11
    1c38:	12 8a       	std	Z+18, r1	; 0x12
    1c3a:	08 95       	ret

00001c3c <__vector_54>:

// Function that can be weakly referenced by serialEventRun to prevent
// pulling in this file if it's not otherwise used.
bool Serial3_available() {
  return Serial3.available();
}
    1c3c:	1f 92       	push	r1
    1c3e:	0f 92       	push	r0
    1c40:	0f b6       	in	r0, 0x3f	; 63
    1c42:	0f 92       	push	r0
    1c44:	11 24       	eor	r1, r1
    1c46:	0b b6       	in	r0, 0x3b	; 59
    1c48:	0f 92       	push	r0
    1c4a:	2f 93       	push	r18
    1c4c:	8f 93       	push	r24
    1c4e:	9f 93       	push	r25
    1c50:	af 93       	push	r26
    1c52:	bf 93       	push	r27
    1c54:	ef 93       	push	r30
    1c56:	ff 93       	push	r31
    1c58:	e0 91 f0 05 	lds	r30, 0x05F0	; 0x8005f0 <Serial3+0x6>
    1c5c:	f0 91 f1 05 	lds	r31, 0x05F1	; 0x8005f1 <Serial3+0x7>
    1c60:	80 81       	ld	r24, Z
    1c62:	82 fd       	sbrc	r24, 2
    1c64:	14 c0       	rjmp	.+40     	; 0x1c8e <__vector_54+0x52>
    1c66:	ea ee       	ldi	r30, 0xEA	; 234
    1c68:	f5 e0       	ldi	r31, 0x05	; 5
    1c6a:	a4 85       	ldd	r26, Z+12	; 0x0c
    1c6c:	b5 85       	ldd	r27, Z+13	; 0x0d
    1c6e:	2c 91       	ld	r18, X
    1c70:	87 85       	ldd	r24, Z+15	; 0x0f
    1c72:	8f 5f       	subi	r24, 0xFF	; 255
    1c74:	8f 70       	andi	r24, 0x0F	; 15
    1c76:	90 89       	ldd	r25, Z+16	; 0x10
    1c78:	89 17       	cp	r24, r25
    1c7a:	71 f0       	breq	.+28     	; 0x1c98 <__vector_54+0x5c>
    1c7c:	df 01       	movw	r26, r30
    1c7e:	e7 85       	ldd	r30, Z+15	; 0x0f
    1c80:	f0 e0       	ldi	r31, 0x00	; 0
    1c82:	e6 51       	subi	r30, 0x16	; 22
    1c84:	fa 4f       	sbci	r31, 0xFA	; 250
    1c86:	23 8b       	std	Z+19, r18	; 0x13
    1c88:	1f 96       	adiw	r26, 0x0f	; 15
    1c8a:	8c 93       	st	X, r24
    1c8c:	05 c0       	rjmp	.+10     	; 0x1c98 <__vector_54+0x5c>
    1c8e:	e0 91 f6 05 	lds	r30, 0x05F6	; 0x8005f6 <Serial3+0xc>
    1c92:	f0 91 f7 05 	lds	r31, 0x05F7	; 0x8005f7 <Serial3+0xd>
    1c96:	80 81       	ld	r24, Z
    1c98:	ff 91       	pop	r31
    1c9a:	ef 91       	pop	r30
    1c9c:	bf 91       	pop	r27
    1c9e:	af 91       	pop	r26
    1ca0:	9f 91       	pop	r25
    1ca2:	8f 91       	pop	r24
    1ca4:	2f 91       	pop	r18
    1ca6:	0f 90       	pop	r0
    1ca8:	0b be       	out	0x3b, r0	; 59
    1caa:	0f 90       	pop	r0
    1cac:	0f be       	out	0x3f, r0	; 63
    1cae:	0f 90       	pop	r0
    1cb0:	1f 90       	pop	r1
    1cb2:	18 95       	reti

00001cb4 <__vector_55>:
    1cb4:	1f 92       	push	r1
    1cb6:	0f 92       	push	r0
    1cb8:	0f b6       	in	r0, 0x3f	; 63
    1cba:	0f 92       	push	r0
    1cbc:	11 24       	eor	r1, r1
    1cbe:	0b b6       	in	r0, 0x3b	; 59
    1cc0:	0f 92       	push	r0
    1cc2:	2f 93       	push	r18
    1cc4:	3f 93       	push	r19
    1cc6:	4f 93       	push	r20
    1cc8:	5f 93       	push	r21
    1cca:	6f 93       	push	r22
    1ccc:	7f 93       	push	r23
    1cce:	8f 93       	push	r24
    1cd0:	9f 93       	push	r25
    1cd2:	af 93       	push	r26
    1cd4:	bf 93       	push	r27
    1cd6:	ef 93       	push	r30
    1cd8:	ff 93       	push	r31
    1cda:	8a ee       	ldi	r24, 0xEA	; 234
    1cdc:	95 e0       	ldi	r25, 0x05	; 5
    1cde:	0e dd       	rcall	.-1508   	; 0x16fc <_ZN14HardwareSerial17_tx_udr_empty_irqEv>
    1ce0:	ff 91       	pop	r31
    1ce2:	ef 91       	pop	r30
    1ce4:	bf 91       	pop	r27
    1ce6:	af 91       	pop	r26
    1ce8:	9f 91       	pop	r25
    1cea:	8f 91       	pop	r24
    1cec:	7f 91       	pop	r23
    1cee:	6f 91       	pop	r22
    1cf0:	5f 91       	pop	r21
    1cf2:	4f 91       	pop	r20
    1cf4:	3f 91       	pop	r19
    1cf6:	2f 91       	pop	r18
    1cf8:	0f 90       	pop	r0
    1cfa:	0b be       	out	0x3b, r0	; 59
    1cfc:	0f 90       	pop	r0
    1cfe:	0f be       	out	0x3f, r0	; 63
    1d00:	0f 90       	pop	r0
    1d02:	1f 90       	pop	r1
    1d04:	18 95       	reti

00001d06 <_GLOBAL__sub_I___vector_54>:
    1d06:	ea ee       	ldi	r30, 0xEA	; 234
    1d08:	f5 e0       	ldi	r31, 0x05	; 5
    1d0a:	8e ea       	ldi	r24, 0xAE	; 174
    1d0c:	92 e0       	ldi	r25, 0x02	; 2
    1d0e:	91 83       	std	Z+1, r25	; 0x01
    1d10:	80 83       	st	Z, r24
    1d12:	85 e3       	ldi	r24, 0x35	; 53
    1d14:	91 e0       	ldi	r25, 0x01	; 1
    1d16:	93 83       	std	Z+3, r25	; 0x03
    1d18:	82 83       	std	Z+2, r24	; 0x02
    1d1a:	84 e3       	ldi	r24, 0x34	; 52
    1d1c:	91 e0       	ldi	r25, 0x01	; 1
    1d1e:	95 83       	std	Z+5, r25	; 0x05
    1d20:	84 83       	std	Z+4, r24	; 0x04
    1d22:	80 e3       	ldi	r24, 0x30	; 48
    1d24:	91 e0       	ldi	r25, 0x01	; 1
    1d26:	97 83       	std	Z+7, r25	; 0x07
    1d28:	86 83       	std	Z+6, r24	; 0x06
    1d2a:	81 e3       	ldi	r24, 0x31	; 49
    1d2c:	91 e0       	ldi	r25, 0x01	; 1
    1d2e:	91 87       	std	Z+9, r25	; 0x09
    1d30:	80 87       	std	Z+8, r24	; 0x08
    1d32:	82 e3       	ldi	r24, 0x32	; 50
    1d34:	91 e0       	ldi	r25, 0x01	; 1
    1d36:	93 87       	std	Z+11, r25	; 0x0b
    1d38:	82 87       	std	Z+10, r24	; 0x0a
    1d3a:	86 e3       	ldi	r24, 0x36	; 54
    1d3c:	91 e0       	ldi	r25, 0x01	; 1
    1d3e:	95 87       	std	Z+13, r25	; 0x0d
    1d40:	84 87       	std	Z+12, r24	; 0x0c
    1d42:	17 86       	std	Z+15, r1	; 0x0f
    1d44:	10 8a       	std	Z+16, r1	; 0x10
    1d46:	11 8a       	std	Z+17, r1	; 0x11
    1d48:	12 8a       	std	Z+18, r1	; 0x12
    1d4a:	08 95       	ret

00001d4c <twi_readFrom>:
{
  // transmit master read ready signal, with or without ack
  if(ack){
    TWCR = _BV(TWEN) | _BV(TWIE) | _BV(TWINT) | _BV(TWEA);
  }else{
	  TWCR = _BV(TWEN) | _BV(TWIE) | _BV(TWINT);
    1d4c:	41 32       	cpi	r20, 0x21	; 33
    1d4e:	08 f0       	brcs	.+2      	; 0x1d52 <twi_readFrom+0x6>
    1d50:	4c c0       	rjmp	.+152    	; 0x1dea <twi_readFrom+0x9e>
    1d52:	90 91 8a 06 	lds	r25, 0x068A	; 0x80068a <twi_state>
    1d56:	91 11       	cpse	r25, r1
    1d58:	fc cf       	rjmp	.-8      	; 0x1d52 <twi_readFrom+0x6>
    1d5a:	31 e0       	ldi	r19, 0x01	; 1
    1d5c:	30 93 8a 06 	sts	0x068A, r19	; 0x80068a <twi_state>
    1d60:	20 93 88 06 	sts	0x0688, r18	; 0x800688 <twi_sendStop>
    1d64:	2f ef       	ldi	r18, 0xFF	; 255
    1d66:	20 93 1d 06 	sts	0x061D, r18	; 0x80061d <twi_error>
    1d6a:	10 92 62 06 	sts	0x0662, r1	; 0x800662 <twi_masterBufferIndex>
    1d6e:	24 0f       	add	r18, r20
    1d70:	20 93 61 06 	sts	0x0661, r18	; 0x800661 <twi_masterBufferLength>
    1d74:	30 93 89 06 	sts	0x0689, r19	; 0x800689 <twi_slarw>
    1d78:	20 91 89 06 	lds	r18, 0x0689	; 0x800689 <twi_slarw>
    1d7c:	88 0f       	add	r24, r24
    1d7e:	82 2b       	or	r24, r18
    1d80:	80 93 89 06 	sts	0x0689, r24	; 0x800689 <twi_slarw>
    1d84:	80 91 87 06 	lds	r24, 0x0687	; 0x800687 <twi_inRepStart>
    1d88:	81 30       	cpi	r24, 0x01	; 1
    1d8a:	81 f4       	brne	.+32     	; 0x1dac <twi_readFrom+0x60>
    1d8c:	10 92 87 06 	sts	0x0687, r1	; 0x800687 <twi_inRepStart>
    1d90:	ab eb       	ldi	r26, 0xBB	; 187
    1d92:	b0 e0       	ldi	r27, 0x00	; 0
    1d94:	ec eb       	ldi	r30, 0xBC	; 188
    1d96:	f0 e0       	ldi	r31, 0x00	; 0
    1d98:	80 91 89 06 	lds	r24, 0x0689	; 0x800689 <twi_slarw>
    1d9c:	8c 93       	st	X, r24
    1d9e:	80 81       	ld	r24, Z
    1da0:	83 fd       	sbrc	r24, 3
    1da2:	fa cf       	rjmp	.-12     	; 0x1d98 <twi_readFrom+0x4c>
    1da4:	85 ec       	ldi	r24, 0xC5	; 197
    1da6:	80 93 bc 00 	sts	0x00BC, r24	; 0x8000bc <__TEXT_REGION_LENGTH__+0x7000bc>
    1daa:	03 c0       	rjmp	.+6      	; 0x1db2 <twi_readFrom+0x66>
    1dac:	85 ee       	ldi	r24, 0xE5	; 229
    1dae:	80 93 bc 00 	sts	0x00BC, r24	; 0x8000bc <__TEXT_REGION_LENGTH__+0x7000bc>
    1db2:	80 91 8a 06 	lds	r24, 0x068A	; 0x80068a <twi_state>
    1db6:	81 30       	cpi	r24, 0x01	; 1
    1db8:	e1 f3       	breq	.-8      	; 0x1db2 <twi_readFrom+0x66>
    1dba:	80 91 62 06 	lds	r24, 0x0662	; 0x800662 <twi_masterBufferIndex>
    1dbe:	84 17       	cp	r24, r20
    1dc0:	10 f4       	brcc	.+4      	; 0x1dc6 <twi_readFrom+0x7a>
    1dc2:	40 91 62 06 	lds	r20, 0x0662	; 0x800662 <twi_masterBufferIndex>
    1dc6:	44 23       	and	r20, r20
    1dc8:	89 f0       	breq	.+34     	; 0x1dec <twi_readFrom+0xa0>
    1dca:	e3 e6       	ldi	r30, 0x63	; 99
    1dcc:	f6 e0       	ldi	r31, 0x06	; 6
    1dce:	a6 2f       	mov	r26, r22
    1dd0:	b7 2f       	mov	r27, r23
    1dd2:	2f ef       	ldi	r18, 0xFF	; 255
    1dd4:	24 0f       	add	r18, r20
    1dd6:	30 e0       	ldi	r19, 0x00	; 0
    1dd8:	2c 59       	subi	r18, 0x9C	; 156
    1dda:	39 4f       	sbci	r19, 0xF9	; 249
    1ddc:	81 91       	ld	r24, Z+
    1dde:	8d 93       	st	X+, r24
    1de0:	e2 17       	cp	r30, r18
    1de2:	f3 07       	cpc	r31, r19
    1de4:	d9 f7       	brne	.-10     	; 0x1ddc <twi_readFrom+0x90>
    1de6:	94 2f       	mov	r25, r20
    1de8:	01 c0       	rjmp	.+2      	; 0x1dec <twi_readFrom+0xa0>
    1dea:	90 e0       	ldi	r25, 0x00	; 0
    1dec:	89 2f       	mov	r24, r25
    1dee:	08 95       	ret

00001df0 <twi_writeTo>:
    1df0:	0f 93       	push	r16
    1df2:	41 32       	cpi	r20, 0x21	; 33
    1df4:	08 f0       	brcs	.+2      	; 0x1df8 <twi_writeTo+0x8>
    1df6:	57 c0       	rjmp	.+174    	; 0x1ea6 <twi_writeTo+0xb6>
    1df8:	30 91 8a 06 	lds	r19, 0x068A	; 0x80068a <twi_state>
    1dfc:	31 11       	cpse	r19, r1
    1dfe:	fc cf       	rjmp	.-8      	; 0x1df8 <twi_writeTo+0x8>
    1e00:	92 e0       	ldi	r25, 0x02	; 2
    1e02:	90 93 8a 06 	sts	0x068A, r25	; 0x80068a <twi_state>
    1e06:	00 93 88 06 	sts	0x0688, r16	; 0x800688 <twi_sendStop>
    1e0a:	9f ef       	ldi	r25, 0xFF	; 255
    1e0c:	90 93 1d 06 	sts	0x061D, r25	; 0x80061d <twi_error>
    1e10:	10 92 62 06 	sts	0x0662, r1	; 0x800662 <twi_masterBufferIndex>
    1e14:	40 93 61 06 	sts	0x0661, r20	; 0x800661 <twi_masterBufferLength>
    1e18:	44 23       	and	r20, r20
    1e1a:	71 f0       	breq	.+28     	; 0x1e38 <twi_writeTo+0x48>
    1e1c:	fb 01       	movw	r30, r22
    1e1e:	a3 e6       	ldi	r26, 0x63	; 99
    1e20:	b6 e0       	ldi	r27, 0x06	; 6
    1e22:	41 50       	subi	r20, 0x01	; 1
    1e24:	50 e0       	ldi	r21, 0x00	; 0
    1e26:	4f 5f       	subi	r20, 0xFF	; 255
    1e28:	5f 4f       	sbci	r21, 0xFF	; 255
    1e2a:	64 0f       	add	r22, r20
    1e2c:	75 1f       	adc	r23, r21
    1e2e:	91 91       	ld	r25, Z+
    1e30:	9d 93       	st	X+, r25
    1e32:	e6 17       	cp	r30, r22
    1e34:	f7 07       	cpc	r31, r23
    1e36:	d9 f7       	brne	.-10     	; 0x1e2e <twi_writeTo+0x3e>
    1e38:	10 92 89 06 	sts	0x0689, r1	; 0x800689 <twi_slarw>
    1e3c:	90 91 89 06 	lds	r25, 0x0689	; 0x800689 <twi_slarw>
    1e40:	88 0f       	add	r24, r24
    1e42:	89 2b       	or	r24, r25
    1e44:	80 93 89 06 	sts	0x0689, r24	; 0x800689 <twi_slarw>
    1e48:	80 91 87 06 	lds	r24, 0x0687	; 0x800687 <twi_inRepStart>
    1e4c:	81 30       	cpi	r24, 0x01	; 1
    1e4e:	81 f4       	brne	.+32     	; 0x1e70 <twi_writeTo+0x80>
    1e50:	10 92 87 06 	sts	0x0687, r1	; 0x800687 <twi_inRepStart>
    1e54:	ab eb       	ldi	r26, 0xBB	; 187
    1e56:	b0 e0       	ldi	r27, 0x00	; 0
    1e58:	ec eb       	ldi	r30, 0xBC	; 188
    1e5a:	f0 e0       	ldi	r31, 0x00	; 0
    1e5c:	80 91 89 06 	lds	r24, 0x0689	; 0x800689 <twi_slarw>
    1e60:	8c 93       	st	X, r24
    1e62:	80 81       	ld	r24, Z
    1e64:	83 fd       	sbrc	r24, 3
    1e66:	fa cf       	rjmp	.-12     	; 0x1e5c <twi_writeTo+0x6c>
    1e68:	85 ec       	ldi	r24, 0xC5	; 197
    1e6a:	80 93 bc 00 	sts	0x00BC, r24	; 0x8000bc <__TEXT_REGION_LENGTH__+0x7000bc>
    1e6e:	03 c0       	rjmp	.+6      	; 0x1e76 <twi_writeTo+0x86>
    1e70:	85 ee       	ldi	r24, 0xE5	; 229
    1e72:	80 93 bc 00 	sts	0x00BC, r24	; 0x8000bc <__TEXT_REGION_LENGTH__+0x7000bc>
    1e76:	22 23       	and	r18, r18
    1e78:	41 f0       	breq	.+16     	; 0x1e8a <twi_writeTo+0x9a>
    1e7a:	80 91 8a 06 	lds	r24, 0x068A	; 0x80068a <twi_state>
    1e7e:	82 30       	cpi	r24, 0x02	; 2
    1e80:	21 f4       	brne	.+8      	; 0x1e8a <twi_writeTo+0x9a>
    1e82:	80 91 8a 06 	lds	r24, 0x068A	; 0x80068a <twi_state>
    1e86:	82 30       	cpi	r24, 0x02	; 2
    1e88:	e1 f3       	breq	.-8      	; 0x1e82 <twi_writeTo+0x92>
    1e8a:	80 91 1d 06 	lds	r24, 0x061D	; 0x80061d <twi_error>
    1e8e:	8f 3f       	cpi	r24, 0xFF	; 255
    1e90:	79 f0       	breq	.+30     	; 0x1eb0 <twi_writeTo+0xc0>
    1e92:	80 91 1d 06 	lds	r24, 0x061D	; 0x80061d <twi_error>
    1e96:	80 32       	cpi	r24, 0x20	; 32
    1e98:	41 f0       	breq	.+16     	; 0x1eaa <twi_writeTo+0xba>
    1e9a:	80 91 1d 06 	lds	r24, 0x061D	; 0x80061d <twi_error>
    1e9e:	80 33       	cpi	r24, 0x30	; 48
    1ea0:	31 f0       	breq	.+12     	; 0x1eae <twi_writeTo+0xbe>
    1ea2:	34 e0       	ldi	r19, 0x04	; 4
    1ea4:	05 c0       	rjmp	.+10     	; 0x1eb0 <twi_writeTo+0xc0>
    1ea6:	31 e0       	ldi	r19, 0x01	; 1
    1ea8:	03 c0       	rjmp	.+6      	; 0x1eb0 <twi_writeTo+0xc0>
    1eaa:	32 e0       	ldi	r19, 0x02	; 2
    1eac:	01 c0       	rjmp	.+2      	; 0x1eb0 <twi_writeTo+0xc0>
    1eae:	33 e0       	ldi	r19, 0x03	; 3
    1eb0:	83 2f       	mov	r24, r19
    1eb2:	0f 91       	pop	r16
    1eb4:	08 95       	ret

00001eb6 <twi_transmit>:
    1eb6:	40 91 3f 06 	lds	r20, 0x063F	; 0x80063f <twi_txBufferLength>
    1eba:	26 2f       	mov	r18, r22
    1ebc:	30 e0       	ldi	r19, 0x00	; 0
    1ebe:	24 0f       	add	r18, r20
    1ec0:	31 1d       	adc	r19, r1
    1ec2:	21 32       	cpi	r18, 0x21	; 33
    1ec4:	31 05       	cpc	r19, r1
    1ec6:	ec f4       	brge	.+58     	; 0x1f02 <twi_transmit+0x4c>
    1ec8:	20 91 8a 06 	lds	r18, 0x068A	; 0x80068a <twi_state>
    1ecc:	24 30       	cpi	r18, 0x04	; 4
    1ece:	d9 f4       	brne	.+54     	; 0x1f06 <twi_transmit+0x50>
    1ed0:	66 23       	and	r22, r22
    1ed2:	81 f0       	breq	.+32     	; 0x1ef4 <twi_transmit+0x3e>
    1ed4:	a8 2f       	mov	r26, r24
    1ed6:	b9 2f       	mov	r27, r25
    1ed8:	80 e0       	ldi	r24, 0x00	; 0
    1eda:	90 e0       	ldi	r25, 0x00	; 0
    1edc:	30 91 3f 06 	lds	r19, 0x063F	; 0x80063f <twi_txBufferLength>
    1ee0:	2d 91       	ld	r18, X+
    1ee2:	fc 01       	movw	r30, r24
    1ee4:	ef 5b       	subi	r30, 0xBF	; 191
    1ee6:	f9 4f       	sbci	r31, 0xF9	; 249
    1ee8:	e3 0f       	add	r30, r19
    1eea:	f1 1d       	adc	r31, r1
    1eec:	20 83       	st	Z, r18
    1eee:	01 96       	adiw	r24, 0x01	; 1
    1ef0:	86 17       	cp	r24, r22
    1ef2:	a0 f3       	brcs	.-24     	; 0x1edc <twi_transmit+0x26>
    1ef4:	80 91 3f 06 	lds	r24, 0x063F	; 0x80063f <twi_txBufferLength>
    1ef8:	68 0f       	add	r22, r24
    1efa:	60 93 3f 06 	sts	0x063F, r22	; 0x80063f <twi_txBufferLength>
    1efe:	80 e0       	ldi	r24, 0x00	; 0
    1f00:	08 95       	ret
    1f02:	81 e0       	ldi	r24, 0x01	; 1
    1f04:	08 95       	ret
    1f06:	82 e0       	ldi	r24, 0x02	; 2
    1f08:	08 95       	ret

00001f0a <twi_stop>:
 * Output   none
 */
void twi_stop(void)
{
  // send stop condition
  TWCR = _BV(TWEN) | _BV(TWIE) | _BV(TWEA) | _BV(TWINT) | _BV(TWSTO);
    1f0a:	85 ed       	ldi	r24, 0xD5	; 213
    1f0c:	80 93 bc 00 	sts	0x00BC, r24	; 0x8000bc <__TEXT_REGION_LENGTH__+0x7000bc>

  // wait for stop condition to be exectued on bus
  // TWINT is not set after a stop condition!
  while(TWCR & _BV(TWSTO)){
    1f10:	ec eb       	ldi	r30, 0xBC	; 188
    1f12:	f0 e0       	ldi	r31, 0x00	; 0
    1f14:	80 81       	ld	r24, Z
    1f16:	84 fd       	sbrc	r24, 4
    1f18:	fd cf       	rjmp	.-6      	; 0x1f14 <twi_stop+0xa>
    continue;
  }

  // update twi state
  twi_state = TWI_READY;
    1f1a:	10 92 8a 06 	sts	0x068A, r1	; 0x80068a <twi_state>
    1f1e:	08 95       	ret

00001f20 <twi_releaseBus>:
 * Output   none
 */
void twi_releaseBus(void)
{
  // release bus
  TWCR = _BV(TWEN) | _BV(TWIE) | _BV(TWEA) | _BV(TWINT);
    1f20:	85 ec       	ldi	r24, 0xC5	; 197
    1f22:	80 93 bc 00 	sts	0x00BC, r24	; 0x8000bc <__TEXT_REGION_LENGTH__+0x7000bc>

  // update twi state
  twi_state = TWI_READY;
    1f26:	10 92 8a 06 	sts	0x068A, r1	; 0x80068a <twi_state>
    1f2a:	08 95       	ret

00001f2c <__vector_39>:
}

ISR(TWI_vect)
{
    1f2c:	1f 92       	push	r1
    1f2e:	0f 92       	push	r0
    1f30:	0f b6       	in	r0, 0x3f	; 63
    1f32:	0f 92       	push	r0
    1f34:	11 24       	eor	r1, r1
    1f36:	0b b6       	in	r0, 0x3b	; 59
    1f38:	0f 92       	push	r0
    1f3a:	2f 93       	push	r18
    1f3c:	3f 93       	push	r19
    1f3e:	4f 93       	push	r20
    1f40:	5f 93       	push	r21
    1f42:	6f 93       	push	r22
    1f44:	7f 93       	push	r23
    1f46:	8f 93       	push	r24
    1f48:	9f 93       	push	r25
    1f4a:	af 93       	push	r26
    1f4c:	bf 93       	push	r27
    1f4e:	ef 93       	push	r30
    1f50:	ff 93       	push	r31
  switch(TW_STATUS){
    1f52:	80 91 b9 00 	lds	r24, 0x00B9	; 0x8000b9 <__TEXT_REGION_LENGTH__+0x7000b9>
    1f56:	88 7f       	andi	r24, 0xF8	; 248
    1f58:	90 e0       	ldi	r25, 0x00	; 0
    1f5a:	89 3c       	cpi	r24, 0xC9	; 201
    1f5c:	91 05       	cpc	r25, r1
    1f5e:	08 f0       	brcs	.+2      	; 0x1f62 <__vector_39+0x36>
    1f60:	ee c0       	rjmp	.+476    	; 0x213e <__vector_39+0x212>
    1f62:	fc 01       	movw	r30, r24
    1f64:	88 27       	eor	r24, r24
    1f66:	ee 58       	subi	r30, 0x8E	; 142
    1f68:	ff 4f       	sbci	r31, 0xFF	; 255
    1f6a:	8f 4f       	sbci	r24, 0xFF	; 255
    1f6c:	61 c4       	rjmp	.+2242   	; 0x2830 <__tablejump2__>
    // All Master
    case TW_START:     // sent start condition
    case TW_REP_START: // sent repeated start condition
      // copy device address and r/w bit to output register and ack
      TWDR = twi_slarw;
    1f6e:	80 91 89 06 	lds	r24, 0x0689	; 0x800689 <twi_slarw>
    1f72:	80 93 bb 00 	sts	0x00BB, r24	; 0x8000bb <__TEXT_REGION_LENGTH__+0x7000bb>
 */
void twi_reply(uint8_t ack)
{
  // transmit master read ready signal, with or without ack
  if(ack){
    TWCR = _BV(TWEN) | _BV(TWIE) | _BV(TWINT) | _BV(TWEA);
    1f76:	85 ec       	ldi	r24, 0xC5	; 197
    1f78:	80 93 bc 00 	sts	0x00BC, r24	; 0x8000bc <__TEXT_REGION_LENGTH__+0x7000bc>
    1f7c:	e0 c0       	rjmp	.+448    	; 0x213e <__vector_39+0x212>

    // Master Transmitter
    case TW_MT_SLA_ACK:  // slave receiver acked address
    case TW_MT_DATA_ACK: // slave receiver acked data
      // if there is data to send, send it, otherwise stop 
      if(twi_masterBufferIndex < twi_masterBufferLength){
    1f7e:	90 91 62 06 	lds	r25, 0x0662	; 0x800662 <twi_masterBufferIndex>
    1f82:	80 91 61 06 	lds	r24, 0x0661	; 0x800661 <twi_masterBufferLength>
    1f86:	98 17       	cp	r25, r24
    1f88:	80 f4       	brcc	.+32     	; 0x1faa <__vector_39+0x7e>
        // copy data to output register and ack
        TWDR = twi_masterBuffer[twi_masterBufferIndex++];
    1f8a:	e0 91 62 06 	lds	r30, 0x0662	; 0x800662 <twi_masterBufferIndex>
    1f8e:	81 e0       	ldi	r24, 0x01	; 1
    1f90:	8e 0f       	add	r24, r30
    1f92:	80 93 62 06 	sts	0x0662, r24	; 0x800662 <twi_masterBufferIndex>
    1f96:	f0 e0       	ldi	r31, 0x00	; 0
    1f98:	ed 59       	subi	r30, 0x9D	; 157
    1f9a:	f9 4f       	sbci	r31, 0xF9	; 249
    1f9c:	80 81       	ld	r24, Z
    1f9e:	80 93 bb 00 	sts	0x00BB, r24	; 0x8000bb <__TEXT_REGION_LENGTH__+0x7000bb>
 */
void twi_reply(uint8_t ack)
{
  // transmit master read ready signal, with or without ack
  if(ack){
    TWCR = _BV(TWEN) | _BV(TWIE) | _BV(TWINT) | _BV(TWEA);
    1fa2:	85 ec       	ldi	r24, 0xC5	; 197
    1fa4:	80 93 bc 00 	sts	0x00BC, r24	; 0x8000bc <__TEXT_REGION_LENGTH__+0x7000bc>
    1fa8:	ca c0       	rjmp	.+404    	; 0x213e <__vector_39+0x212>
      if(twi_masterBufferIndex < twi_masterBufferLength){
        // copy data to output register and ack
        TWDR = twi_masterBuffer[twi_masterBufferIndex++];
        twi_reply(1);
      }else{
	if (twi_sendStop)
    1faa:	80 91 88 06 	lds	r24, 0x0688	; 0x800688 <twi_sendStop>
    1fae:	88 23       	and	r24, r24
          twi_stop();
    1fb0:	11 f0       	breq	.+4      	; 0x1fb6 <__vector_39+0x8a>
    1fb2:	ab df       	rcall	.-170    	; 0x1f0a <twi_stop>
    1fb4:	c4 c0       	rjmp	.+392    	; 0x213e <__vector_39+0x212>
	else {
	  twi_inRepStart = 1;	// we're gonna send the START
    1fb6:	81 e0       	ldi	r24, 0x01	; 1
    1fb8:	80 93 87 06 	sts	0x0687, r24	; 0x800687 <twi_inRepStart>
	  // don't enable the interrupt. We'll generate the start, but we 
	  // avoid handling the interrupt until we're in the next transaction,
	  // at the point where we would normally issue the start.
	  TWCR = _BV(TWINT) | _BV(TWSTA)| _BV(TWEN) ;
    1fbc:	84 ea       	ldi	r24, 0xA4	; 164
    1fbe:	80 93 bc 00 	sts	0x00BC, r24	; 0x8000bc <__TEXT_REGION_LENGTH__+0x7000bc>
	  twi_state = TWI_READY;
    1fc2:	10 92 8a 06 	sts	0x068A, r1	; 0x80068a <twi_state>
    1fc6:	bb c0       	rjmp	.+374    	; 0x213e <__vector_39+0x212>
	}
      }
      break;
    case TW_MT_SLA_NACK:  // address sent, nack received
      twi_error = TW_MT_SLA_NACK;
    1fc8:	80 e2       	ldi	r24, 0x20	; 32
    1fca:	80 93 1d 06 	sts	0x061D, r24	; 0x80061d <twi_error>
      twi_stop();
    1fce:	9d df       	rcall	.-198    	; 0x1f0a <twi_stop>
      break;
    1fd0:	b6 c0       	rjmp	.+364    	; 0x213e <__vector_39+0x212>
    case TW_MT_DATA_NACK: // data sent, nack received
      twi_error = TW_MT_DATA_NACK;
    1fd2:	80 e3       	ldi	r24, 0x30	; 48
    1fd4:	80 93 1d 06 	sts	0x061D, r24	; 0x80061d <twi_error>
      twi_stop();
    1fd8:	98 df       	rcall	.-208    	; 0x1f0a <twi_stop>
      break;
    case TW_MT_ARB_LOST: // lost bus arbitration
      twi_error = TW_MT_ARB_LOST;
    1fda:	b1 c0       	rjmp	.+354    	; 0x213e <__vector_39+0x212>
    1fdc:	88 e3       	ldi	r24, 0x38	; 56
    1fde:	80 93 1d 06 	sts	0x061D, r24	; 0x80061d <twi_error>
      twi_releaseBus();
    1fe2:	9e df       	rcall	.-196    	; 0x1f20 <twi_releaseBus>
      break;
    1fe4:	ac c0       	rjmp	.+344    	; 0x213e <__vector_39+0x212>

    // Master Receiver
    case TW_MR_DATA_ACK: // data received, ack sent
      // put byte into buffer
      twi_masterBuffer[twi_masterBufferIndex++] = TWDR;
    1fe6:	e0 91 62 06 	lds	r30, 0x0662	; 0x800662 <twi_masterBufferIndex>
    1fea:	81 e0       	ldi	r24, 0x01	; 1
    1fec:	8e 0f       	add	r24, r30
    1fee:	80 93 62 06 	sts	0x0662, r24	; 0x800662 <twi_masterBufferIndex>
    1ff2:	80 91 bb 00 	lds	r24, 0x00BB	; 0x8000bb <__TEXT_REGION_LENGTH__+0x7000bb>
    1ff6:	f0 e0       	ldi	r31, 0x00	; 0
    1ff8:	ed 59       	subi	r30, 0x9D	; 157
    1ffa:	f9 4f       	sbci	r31, 0xF9	; 249
    1ffc:	80 83       	st	Z, r24
    case TW_MR_SLA_ACK:  // address sent, ack received
      // ack if more bytes are expected, otherwise nack
      if(twi_masterBufferIndex < twi_masterBufferLength){
    1ffe:	90 91 62 06 	lds	r25, 0x0662	; 0x800662 <twi_masterBufferIndex>
    2002:	80 91 61 06 	lds	r24, 0x0661	; 0x800661 <twi_masterBufferLength>
    2006:	98 17       	cp	r25, r24
    2008:	20 f4       	brcc	.+8      	; 0x2012 <__vector_39+0xe6>
 */
void twi_reply(uint8_t ack)
{
  // transmit master read ready signal, with or without ack
  if(ack){
    TWCR = _BV(TWEN) | _BV(TWIE) | _BV(TWINT) | _BV(TWEA);
    200a:	85 ec       	ldi	r24, 0xC5	; 197
    200c:	80 93 bc 00 	sts	0x00BC, r24	; 0x8000bc <__TEXT_REGION_LENGTH__+0x7000bc>
    2010:	96 c0       	rjmp	.+300    	; 0x213e <__vector_39+0x212>
  }else{
	  TWCR = _BV(TWEN) | _BV(TWIE) | _BV(TWINT);
    2012:	85 e8       	ldi	r24, 0x85	; 133
    2014:	80 93 bc 00 	sts	0x00BC, r24	; 0x8000bc <__TEXT_REGION_LENGTH__+0x7000bc>
    2018:	92 c0       	rjmp	.+292    	; 0x213e <__vector_39+0x212>
        twi_reply(0);
      }
      break;
    case TW_MR_DATA_NACK: // data received, nack sent
      // put final byte into buffer
      twi_masterBuffer[twi_masterBufferIndex++] = TWDR;
    201a:	e0 91 62 06 	lds	r30, 0x0662	; 0x800662 <twi_masterBufferIndex>
    201e:	81 e0       	ldi	r24, 0x01	; 1
    2020:	8e 0f       	add	r24, r30
    2022:	80 93 62 06 	sts	0x0662, r24	; 0x800662 <twi_masterBufferIndex>
    2026:	80 91 bb 00 	lds	r24, 0x00BB	; 0x8000bb <__TEXT_REGION_LENGTH__+0x7000bb>
    202a:	f0 e0       	ldi	r31, 0x00	; 0
    202c:	ed 59       	subi	r30, 0x9D	; 157
    202e:	f9 4f       	sbci	r31, 0xF9	; 249
	if (twi_sendStop)
    2030:	80 83       	st	Z, r24
    2032:	80 91 88 06 	lds	r24, 0x0688	; 0x800688 <twi_sendStop>
    2036:	88 23       	and	r24, r24
          twi_stop();
    2038:	11 f0       	breq	.+4      	; 0x203e <__vector_39+0x112>
    203a:	67 df       	rcall	.-306    	; 0x1f0a <twi_stop>
    203c:	80 c0       	rjmp	.+256    	; 0x213e <__vector_39+0x212>
	else {
	  twi_inRepStart = 1;	// we're gonna send the START
    203e:	81 e0       	ldi	r24, 0x01	; 1
    2040:	80 93 87 06 	sts	0x0687, r24	; 0x800687 <twi_inRepStart>
	  // don't enable the interrupt. We'll generate the start, but we 
	  // avoid handling the interrupt until we're in the next transaction,
	  // at the point where we would normally issue the start.
	  TWCR = _BV(TWINT) | _BV(TWSTA)| _BV(TWEN) ;
    2044:	84 ea       	ldi	r24, 0xA4	; 164
    2046:	80 93 bc 00 	sts	0x00BC, r24	; 0x8000bc <__TEXT_REGION_LENGTH__+0x7000bc>
	  twi_state = TWI_READY;
    204a:	10 92 8a 06 	sts	0x068A, r1	; 0x80068a <twi_state>
	}    
	break;
    case TW_MR_SLA_NACK: // address sent, nack received
      twi_stop();
    204e:	77 c0       	rjmp	.+238    	; 0x213e <__vector_39+0x212>
    2050:	5c df       	rcall	.-328    	; 0x1f0a <twi_stop>
      break;
    2052:	75 c0       	rjmp	.+234    	; 0x213e <__vector_39+0x212>
    case TW_SR_SLA_ACK:   // addressed, returned ack
    case TW_SR_GCALL_ACK: // addressed generally, returned ack
    case TW_SR_ARB_LOST_SLA_ACK:   // lost arbitration, returned ack
    case TW_SR_ARB_LOST_GCALL_ACK: // lost arbitration, returned ack
      // enter slave receiver mode
      twi_state = TWI_SRX;
    2054:	83 e0       	ldi	r24, 0x03	; 3
    2056:	80 93 8a 06 	sts	0x068A, r24	; 0x80068a <twi_state>
      // indicate that rx buffer can be overwritten and ack
      twi_rxBufferIndex = 0;
    205a:	10 92 1e 06 	sts	0x061E, r1	; 0x80061e <twi_rxBufferIndex>
 */
void twi_reply(uint8_t ack)
{
  // transmit master read ready signal, with or without ack
  if(ack){
    TWCR = _BV(TWEN) | _BV(TWIE) | _BV(TWINT) | _BV(TWEA);
    205e:	85 ec       	ldi	r24, 0xC5	; 197
    2060:	80 93 bc 00 	sts	0x00BC, r24	; 0x8000bc <__TEXT_REGION_LENGTH__+0x7000bc>
    2064:	6c c0       	rjmp	.+216    	; 0x213e <__vector_39+0x212>
      twi_reply(1);
      break;
    case TW_SR_DATA_ACK:       // data received, returned ack
    case TW_SR_GCALL_DATA_ACK: // data received generally, returned ack
      // if there is still room in the rx buffer
      if(twi_rxBufferIndex < TWI_BUFFER_LENGTH){
    2066:	80 91 1e 06 	lds	r24, 0x061E	; 0x80061e <twi_rxBufferIndex>
    206a:	80 32       	cpi	r24, 0x20	; 32
    206c:	80 f4       	brcc	.+32     	; 0x208e <__vector_39+0x162>
        // put byte in buffer and ack
        twi_rxBuffer[twi_rxBufferIndex++] = TWDR;
    206e:	e0 91 1e 06 	lds	r30, 0x061E	; 0x80061e <twi_rxBufferIndex>
    2072:	81 e0       	ldi	r24, 0x01	; 1
    2074:	8e 0f       	add	r24, r30
    2076:	80 93 1e 06 	sts	0x061E, r24	; 0x80061e <twi_rxBufferIndex>
    207a:	80 91 bb 00 	lds	r24, 0x00BB	; 0x8000bb <__TEXT_REGION_LENGTH__+0x7000bb>
    207e:	f0 e0       	ldi	r31, 0x00	; 0
    2080:	e1 5e       	subi	r30, 0xE1	; 225
    2082:	f9 4f       	sbci	r31, 0xF9	; 249
    2084:	80 83       	st	Z, r24
 */
void twi_reply(uint8_t ack)
{
  // transmit master read ready signal, with or without ack
  if(ack){
    TWCR = _BV(TWEN) | _BV(TWIE) | _BV(TWINT) | _BV(TWEA);
    2086:	85 ec       	ldi	r24, 0xC5	; 197
    2088:	80 93 bc 00 	sts	0x00BC, r24	; 0x8000bc <__TEXT_REGION_LENGTH__+0x7000bc>
  }else{
	  TWCR = _BV(TWEN) | _BV(TWIE) | _BV(TWINT);
    208c:	58 c0       	rjmp	.+176    	; 0x213e <__vector_39+0x212>
    208e:	85 e8       	ldi	r24, 0x85	; 133
    2090:	80 93 bc 00 	sts	0x00BC, r24	; 0x8000bc <__TEXT_REGION_LENGTH__+0x7000bc>
        twi_reply(0);
      }
      break;
    case TW_SR_STOP: // stop or repeated start condition received
      // ack future responses and leave slave receiver state
      twi_releaseBus();
    2094:	54 c0       	rjmp	.+168    	; 0x213e <__vector_39+0x212>
    2096:	44 df       	rcall	.-376    	; 0x1f20 <twi_releaseBus>
      // put a null char after data if there's room
      if(twi_rxBufferIndex < TWI_BUFFER_LENGTH){
    2098:	80 91 1e 06 	lds	r24, 0x061E	; 0x80061e <twi_rxBufferIndex>
    209c:	80 32       	cpi	r24, 0x20	; 32
    209e:	30 f4       	brcc	.+12     	; 0x20ac <__vector_39+0x180>
        twi_rxBuffer[twi_rxBufferIndex] = '\0';
    20a0:	e0 91 1e 06 	lds	r30, 0x061E	; 0x80061e <twi_rxBufferIndex>
    20a4:	f0 e0       	ldi	r31, 0x00	; 0
    20a6:	e1 5e       	subi	r30, 0xE1	; 225
    20a8:	f9 4f       	sbci	r31, 0xF9	; 249
    20aa:	10 82       	st	Z, r1
      }
      // callback to user defined callback
      twi_onSlaveReceive(twi_rxBuffer, twi_rxBufferIndex);
    20ac:	60 91 1e 06 	lds	r22, 0x061E	; 0x80061e <twi_rxBufferIndex>
    20b0:	70 e0       	ldi	r23, 0x00	; 0
    20b2:	e0 91 83 06 	lds	r30, 0x0683	; 0x800683 <twi_onSlaveReceive>
    20b6:	f0 91 84 06 	lds	r31, 0x0684	; 0x800684 <twi_onSlaveReceive+0x1>
    20ba:	8f e1       	ldi	r24, 0x1F	; 31
    20bc:	96 e0       	ldi	r25, 0x06	; 6
    20be:	19 95       	eicall
      // since we submit rx buffer to "wire" library, we can reset it
      twi_rxBufferIndex = 0;
    20c0:	10 92 1e 06 	sts	0x061E, r1	; 0x80061e <twi_rxBufferIndex>
      break;
    20c4:	3c c0       	rjmp	.+120    	; 0x213e <__vector_39+0x212>
{
  // transmit master read ready signal, with or without ack
  if(ack){
    TWCR = _BV(TWEN) | _BV(TWIE) | _BV(TWINT) | _BV(TWEA);
  }else{
	  TWCR = _BV(TWEN) | _BV(TWIE) | _BV(TWINT);
    20c6:	85 e8       	ldi	r24, 0x85	; 133
    20c8:	80 93 bc 00 	sts	0x00BC, r24	; 0x8000bc <__TEXT_REGION_LENGTH__+0x7000bc>
    20cc:	38 c0       	rjmp	.+112    	; 0x213e <__vector_39+0x212>
    
    // Slave Transmitter
    case TW_ST_SLA_ACK:          // addressed, returned ack
    case TW_ST_ARB_LOST_SLA_ACK: // arbitration lost, returned ack
      // enter slave transmitter mode
      twi_state = TWI_STX;
    20ce:	84 e0       	ldi	r24, 0x04	; 4
    20d0:	80 93 8a 06 	sts	0x068A, r24	; 0x80068a <twi_state>
      // ready the tx buffer index for iteration
      twi_txBufferIndex = 0;
    20d4:	10 92 40 06 	sts	0x0640, r1	; 0x800640 <twi_txBufferIndex>
      // set tx buffer length to be zero, to verify if user changes it
      twi_txBufferLength = 0;
    20d8:	10 92 3f 06 	sts	0x063F, r1	; 0x80063f <twi_txBufferLength>
      // request for txBuffer to be filled and length to be set
      // note: user must call twi_transmit(bytes, length) to do this
      twi_onSlaveTransmit();
    20dc:	e0 91 85 06 	lds	r30, 0x0685	; 0x800685 <twi_onSlaveTransmit>
    20e0:	f0 91 86 06 	lds	r31, 0x0686	; 0x800686 <twi_onSlaveTransmit+0x1>
    20e4:	19 95       	eicall
      // if they didn't change buffer & length, initialize it
      if(0 == twi_txBufferLength){
    20e6:	80 91 3f 06 	lds	r24, 0x063F	; 0x80063f <twi_txBufferLength>
    20ea:	81 11       	cpse	r24, r1
    20ec:	05 c0       	rjmp	.+10     	; 0x20f8 <__vector_39+0x1cc>
        twi_txBufferLength = 1;
    20ee:	81 e0       	ldi	r24, 0x01	; 1
    20f0:	80 93 3f 06 	sts	0x063F, r24	; 0x80063f <twi_txBufferLength>
        twi_txBuffer[0] = 0x00;
    20f4:	10 92 41 06 	sts	0x0641, r1	; 0x800641 <twi_txBuffer>
      }
      // transmit first byte from buffer, fall
    case TW_ST_DATA_ACK: // byte sent, ack returned
      // copy data to output register
      TWDR = twi_txBuffer[twi_txBufferIndex++];
    20f8:	e0 91 40 06 	lds	r30, 0x0640	; 0x800640 <twi_txBufferIndex>
    20fc:	81 e0       	ldi	r24, 0x01	; 1
    20fe:	8e 0f       	add	r24, r30
    2100:	80 93 40 06 	sts	0x0640, r24	; 0x800640 <twi_txBufferIndex>
    2104:	f0 e0       	ldi	r31, 0x00	; 0
    2106:	ef 5b       	subi	r30, 0xBF	; 191
    2108:	f9 4f       	sbci	r31, 0xF9	; 249
    210a:	80 81       	ld	r24, Z
    210c:	80 93 bb 00 	sts	0x00BB, r24	; 0x8000bb <__TEXT_REGION_LENGTH__+0x7000bb>
      // if there is more to send, ack, otherwise nack
      if(twi_txBufferIndex < twi_txBufferLength){
    2110:	90 91 40 06 	lds	r25, 0x0640	; 0x800640 <twi_txBufferIndex>
    2114:	80 91 3f 06 	lds	r24, 0x063F	; 0x80063f <twi_txBufferLength>
    2118:	98 17       	cp	r25, r24
    211a:	20 f4       	brcc	.+8      	; 0x2124 <__vector_39+0x1f8>
 */
void twi_reply(uint8_t ack)
{
  // transmit master read ready signal, with or without ack
  if(ack){
    TWCR = _BV(TWEN) | _BV(TWIE) | _BV(TWINT) | _BV(TWEA);
    211c:	85 ec       	ldi	r24, 0xC5	; 197
    211e:	80 93 bc 00 	sts	0x00BC, r24	; 0x8000bc <__TEXT_REGION_LENGTH__+0x7000bc>
    2122:	0d c0       	rjmp	.+26     	; 0x213e <__vector_39+0x212>
  }else{
	  TWCR = _BV(TWEN) | _BV(TWIE) | _BV(TWINT);
    2124:	85 e8       	ldi	r24, 0x85	; 133
    2126:	80 93 bc 00 	sts	0x00BC, r24	; 0x8000bc <__TEXT_REGION_LENGTH__+0x7000bc>
    212a:	09 c0       	rjmp	.+18     	; 0x213e <__vector_39+0x212>
 */
void twi_reply(uint8_t ack)
{
  // transmit master read ready signal, with or without ack
  if(ack){
    TWCR = _BV(TWEN) | _BV(TWIE) | _BV(TWINT) | _BV(TWEA);
    212c:	85 ec       	ldi	r24, 0xC5	; 197
    212e:	80 93 bc 00 	sts	0x00BC, r24	; 0x8000bc <__TEXT_REGION_LENGTH__+0x7000bc>
    case TW_ST_DATA_NACK: // received nack, we are done 
    case TW_ST_LAST_DATA: // received ack, but we are done already!
      // ack future responses
      twi_reply(1);
      // leave slave receiver state
      twi_state = TWI_READY;
    2132:	10 92 8a 06 	sts	0x068A, r1	; 0x80068a <twi_state>

    // All
    case TW_NO_INFO:   // no state information
      break;
    case TW_BUS_ERROR: // bus error, illegal stop/start
      twi_error = TW_BUS_ERROR;
    2136:	03 c0       	rjmp	.+6      	; 0x213e <__vector_39+0x212>
    2138:	10 92 1d 06 	sts	0x061D, r1	; 0x80061d <twi_error>
      twi_stop();
    213c:	e6 de       	rcall	.-564    	; 0x1f0a <twi_stop>
      break;
  }
}
    213e:	ff 91       	pop	r31
    2140:	ef 91       	pop	r30
    2142:	bf 91       	pop	r27
    2144:	af 91       	pop	r26
    2146:	9f 91       	pop	r25
    2148:	8f 91       	pop	r24
    214a:	7f 91       	pop	r23
    214c:	6f 91       	pop	r22
    214e:	5f 91       	pop	r21
    2150:	4f 91       	pop	r20
    2152:	3f 91       	pop	r19
    2154:	2f 91       	pop	r18
    2156:	0f 90       	pop	r0
    2158:	0b be       	out	0x3b, r0	; 59
    215a:	0f 90       	pop	r0
    215c:	0f be       	out	0x3f, r0	; 63
    215e:	0f 90       	pop	r0
    2160:	1f 90       	pop	r1
    2162:	18 95       	reti

00002164 <_ZN7TwoWire9availableEv>:
}

// sets function called on slave read
void TwoWire::onRequest( void (*function)(void) )
{
	user_onRequest = function;
    2164:	80 91 b1 06 	lds	r24, 0x06B1	; 0x8006b1 <_ZN7TwoWire14rxBufferLengthE>
    2168:	90 e0       	ldi	r25, 0x00	; 0
    216a:	20 91 b2 06 	lds	r18, 0x06B2	; 0x8006b2 <_ZN7TwoWire13rxBufferIndexE>
    216e:	82 1b       	sub	r24, r18
    2170:	91 09       	sbc	r25, r1
    2172:	08 95       	ret

00002174 <_ZN7TwoWire4readEv>:
    2174:	90 91 b2 06 	lds	r25, 0x06B2	; 0x8006b2 <_ZN7TwoWire13rxBufferIndexE>
    2178:	80 91 b1 06 	lds	r24, 0x06B1	; 0x8006b1 <_ZN7TwoWire14rxBufferLengthE>
    217c:	98 17       	cp	r25, r24
    217e:	50 f4       	brcc	.+20     	; 0x2194 <_ZN7TwoWire4readEv+0x20>
    2180:	e9 2f       	mov	r30, r25
    2182:	f0 e0       	ldi	r31, 0x00	; 0
    2184:	ed 54       	subi	r30, 0x4D	; 77
    2186:	f9 4f       	sbci	r31, 0xF9	; 249
    2188:	20 81       	ld	r18, Z
    218a:	30 e0       	ldi	r19, 0x00	; 0
    218c:	9f 5f       	subi	r25, 0xFF	; 255
    218e:	90 93 b2 06 	sts	0x06B2, r25	; 0x8006b2 <_ZN7TwoWire13rxBufferIndexE>
    2192:	02 c0       	rjmp	.+4      	; 0x2198 <_ZN7TwoWire4readEv+0x24>
    2194:	2f ef       	ldi	r18, 0xFF	; 255
    2196:	3f ef       	ldi	r19, 0xFF	; 255
    2198:	c9 01       	movw	r24, r18
    219a:	08 95       	ret

0000219c <_ZN7TwoWire4peekEv>:
    219c:	e0 91 b2 06 	lds	r30, 0x06B2	; 0x8006b2 <_ZN7TwoWire13rxBufferIndexE>
    21a0:	80 91 b1 06 	lds	r24, 0x06B1	; 0x8006b1 <_ZN7TwoWire14rxBufferLengthE>
    21a4:	e8 17       	cp	r30, r24
    21a6:	30 f4       	brcc	.+12     	; 0x21b4 <_ZN7TwoWire4peekEv+0x18>
    21a8:	f0 e0       	ldi	r31, 0x00	; 0
    21aa:	ed 54       	subi	r30, 0x4D	; 77
    21ac:	f9 4f       	sbci	r31, 0xF9	; 249
    21ae:	80 81       	ld	r24, Z
    21b0:	90 e0       	ldi	r25, 0x00	; 0
    21b2:	08 95       	ret
    21b4:	8f ef       	ldi	r24, 0xFF	; 255
    21b6:	9f ef       	ldi	r25, 0xFF	; 255
    21b8:	08 95       	ret

000021ba <_ZN7TwoWire5flushEv>:
    21ba:	08 95       	ret

000021bc <_ZN7TwoWire5writeEh>:
    21bc:	cf 93       	push	r28
    21be:	df 93       	push	r29
    21c0:	1f 92       	push	r1
    21c2:	cd b7       	in	r28, 0x3d	; 61
    21c4:	de b7       	in	r29, 0x3e	; 62
    21c6:	69 83       	std	Y+1, r22	; 0x01
    21c8:	80 91 8d 06 	lds	r24, 0x068D	; 0x80068d <_ZN7TwoWire12transmittingE>
    21cc:	88 23       	and	r24, r24
    21ce:	99 f0       	breq	.+38     	; 0x21f6 <_ZN7TwoWire5writeEh+0x3a>
    21d0:	80 91 8e 06 	lds	r24, 0x068E	; 0x80068e <_ZN7TwoWire14txBufferLengthE>
    21d4:	80 32       	cpi	r24, 0x20	; 32
    21d6:	b0 f4       	brcc	.+44     	; 0x2204 <__stack+0x5>
    21d8:	80 91 8f 06 	lds	r24, 0x068F	; 0x80068f <_ZN7TwoWire13txBufferIndexE>
    21dc:	e8 2f       	mov	r30, r24
    21de:	f0 e0       	ldi	r31, 0x00	; 0
    21e0:	e0 57       	subi	r30, 0x70	; 112
    21e2:	f9 4f       	sbci	r31, 0xF9	; 249
    21e4:	60 83       	st	Z, r22
    21e6:	8f 5f       	subi	r24, 0xFF	; 255
    21e8:	80 93 8f 06 	sts	0x068F, r24	; 0x80068f <_ZN7TwoWire13txBufferIndexE>
    21ec:	80 93 8e 06 	sts	0x068E, r24	; 0x80068e <_ZN7TwoWire14txBufferLengthE>
    21f0:	81 e0       	ldi	r24, 0x01	; 1
    21f2:	90 e0       	ldi	r25, 0x00	; 0
    21f4:	09 c0       	rjmp	.+18     	; 0x2208 <__stack+0x9>
    21f6:	61 e0       	ldi	r22, 0x01	; 1
    21f8:	ce 01       	movw	r24, r28
    21fa:	01 96       	adiw	r24, 0x01	; 1
    21fc:	5c de       	rcall	.-840    	; 0x1eb6 <twi_transmit>
    21fe:	81 e0       	ldi	r24, 0x01	; 1
    2200:	90 e0       	ldi	r25, 0x00	; 0
    2202:	02 c0       	rjmp	.+4      	; 0x2208 <__stack+0x9>
    2204:	80 e0       	ldi	r24, 0x00	; 0
    2206:	90 e0       	ldi	r25, 0x00	; 0
    2208:	0f 90       	pop	r0
    220a:	df 91       	pop	r29
    220c:	cf 91       	pop	r28
    220e:	08 95       	ret

00002210 <_ZN7TwoWire5writeEPKhj>:
    2210:	cf 92       	push	r12
    2212:	df 92       	push	r13
    2214:	ef 92       	push	r14
    2216:	ff 92       	push	r15
    2218:	0f 93       	push	r16
    221a:	1f 93       	push	r17
    221c:	cf 93       	push	r28
    221e:	df 93       	push	r29
    2220:	8c 01       	movw	r16, r24
    2222:	cb 01       	movw	r24, r22
    2224:	6a 01       	movw	r12, r20
    2226:	20 91 8d 06 	lds	r18, 0x068D	; 0x80068d <_ZN7TwoWire12transmittingE>
    222a:	22 23       	and	r18, r18
    222c:	a1 f0       	breq	.+40     	; 0x2256 <_ZN7TwoWire5writeEPKhj+0x46>
    222e:	41 15       	cp	r20, r1
    2230:	51 05       	cpc	r21, r1
    2232:	99 f0       	breq	.+38     	; 0x225a <_ZN7TwoWire5writeEPKhj+0x4a>
    2234:	eb 01       	movw	r28, r22
    2236:	7b 01       	movw	r14, r22
    2238:	e4 0e       	add	r14, r20
    223a:	f5 1e       	adc	r15, r21
    223c:	69 91       	ld	r22, Y+
    223e:	d8 01       	movw	r26, r16
    2240:	ed 91       	ld	r30, X+
    2242:	fc 91       	ld	r31, X
    2244:	01 90       	ld	r0, Z+
    2246:	f0 81       	ld	r31, Z
    2248:	e0 2d       	mov	r30, r0
    224a:	c8 01       	movw	r24, r16
    224c:	19 95       	eicall
    224e:	ce 15       	cp	r28, r14
    2250:	df 05       	cpc	r29, r15
    2252:	a1 f7       	brne	.-24     	; 0x223c <_ZN7TwoWire5writeEPKhj+0x2c>
    2254:	02 c0       	rjmp	.+4      	; 0x225a <_ZN7TwoWire5writeEPKhj+0x4a>
    2256:	64 2f       	mov	r22, r20
    2258:	2e de       	rcall	.-932    	; 0x1eb6 <twi_transmit>
    225a:	c6 01       	movw	r24, r12
    225c:	df 91       	pop	r29
    225e:	cf 91       	pop	r28
    2260:	1f 91       	pop	r17
    2262:	0f 91       	pop	r16
    2264:	ff 90       	pop	r15
    2266:	ef 90       	pop	r14
    2268:	df 90       	pop	r13
    226a:	cf 90       	pop	r12
    226c:	08 95       	ret

0000226e <_ZN7TwoWire17beginTransmissionEh>:
    226e:	81 e0       	ldi	r24, 0x01	; 1
    2270:	80 93 8d 06 	sts	0x068D, r24	; 0x80068d <_ZN7TwoWire12transmittingE>
    2274:	60 93 b0 06 	sts	0x06B0, r22	; 0x8006b0 <_ZN7TwoWire9txAddressE>
    2278:	10 92 8f 06 	sts	0x068F, r1	; 0x80068f <_ZN7TwoWire13txBufferIndexE>
    227c:	10 92 8e 06 	sts	0x068E, r1	; 0x80068e <_ZN7TwoWire14txBufferLengthE>
    2280:	08 95       	ret

00002282 <_ZN7TwoWire15endTransmissionEh>:
    2282:	0f 93       	push	r16
    2284:	06 2f       	mov	r16, r22
    2286:	21 e0       	ldi	r18, 0x01	; 1
    2288:	40 91 8e 06 	lds	r20, 0x068E	; 0x80068e <_ZN7TwoWire14txBufferLengthE>
    228c:	60 e9       	ldi	r22, 0x90	; 144
    228e:	76 e0       	ldi	r23, 0x06	; 6
    2290:	80 91 b0 06 	lds	r24, 0x06B0	; 0x8006b0 <_ZN7TwoWire9txAddressE>
    2294:	ad dd       	rcall	.-1190   	; 0x1df0 <twi_writeTo>
    2296:	10 92 8f 06 	sts	0x068F, r1	; 0x80068f <_ZN7TwoWire13txBufferIndexE>
    229a:	10 92 8e 06 	sts	0x068E, r1	; 0x80068e <_ZN7TwoWire14txBufferLengthE>
    229e:	10 92 8d 06 	sts	0x068D, r1	; 0x80068d <_ZN7TwoWire12transmittingE>
    22a2:	0f 91       	pop	r16
    22a4:	08 95       	ret

000022a6 <_ZN7TwoWire11requestFromEhhmhh>:
    22a6:	4f 92       	push	r4
    22a8:	5f 92       	push	r5
    22aa:	6f 92       	push	r6
    22ac:	7f 92       	push	r7
    22ae:	af 92       	push	r10
    22b0:	bf 92       	push	r11
    22b2:	cf 92       	push	r12
    22b4:	ef 92       	push	r14
    22b6:	ff 92       	push	r15
    22b8:	0f 93       	push	r16
    22ba:	1f 93       	push	r17
    22bc:	cf 93       	push	r28
    22be:	df 93       	push	r29
    22c0:	5c 01       	movw	r10, r24
    22c2:	f6 2e       	mov	r15, r22
    22c4:	d4 2f       	mov	r29, r20
    22c6:	28 01       	movw	r4, r16
    22c8:	39 01       	movw	r6, r18
    22ca:	ee 20       	and	r14, r14
    22cc:	39 f1       	breq	.+78     	; 0x231c <_ZN7TwoWire11requestFromEhhmhh+0x76>
    22ce:	cf df       	rcall	.-98     	; 0x226e <_ZN7TwoWire17beginTransmissionEh>
    22d0:	8e 2d       	mov	r24, r14
    22d2:	84 30       	cpi	r24, 0x04	; 4
    22d4:	08 f0       	brcs	.+2      	; 0x22d8 <_ZN7TwoWire11requestFromEhhmhh+0x32>
    22d6:	83 e0       	ldi	r24, 0x03	; 3
    22d8:	cf ef       	ldi	r28, 0xFF	; 255
    22da:	c8 0f       	add	r28, r24
    22dc:	88 23       	and	r24, r24
    22de:	d9 f0       	breq	.+54     	; 0x2316 <_ZN7TwoWire11requestFromEhhmhh+0x70>
    22e0:	8c 2f       	mov	r24, r28
    22e2:	88 0f       	add	r24, r24
    22e4:	88 0f       	add	r24, r24
    22e6:	88 0f       	add	r24, r24
    22e8:	a3 01       	movw	r20, r6
    22ea:	92 01       	movw	r18, r4
    22ec:	04 c0       	rjmp	.+8      	; 0x22f6 <_ZN7TwoWire11requestFromEhhmhh+0x50>
    22ee:	56 95       	lsr	r21
    22f0:	47 95       	ror	r20
    22f2:	37 95       	ror	r19
    22f4:	27 95       	ror	r18
    22f6:	8a 95       	dec	r24
    22f8:	d2 f7       	brpl	.-12     	; 0x22ee <_ZN7TwoWire11requestFromEhhmhh+0x48>
    22fa:	ca 01       	movw	r24, r20
    22fc:	b9 01       	movw	r22, r18
    22fe:	d5 01       	movw	r26, r10
    2300:	ed 91       	ld	r30, X+
    2302:	fc 91       	ld	r31, X
    2304:	01 90       	ld	r0, Z+
    2306:	f0 81       	ld	r31, Z
    2308:	e0 2d       	mov	r30, r0
    230a:	c5 01       	movw	r24, r10
    230c:	19 95       	eicall
    230e:	8c 2f       	mov	r24, r28
    2310:	c1 50       	subi	r28, 0x01	; 1
    2312:	81 11       	cpse	r24, r1
    2314:	e5 cf       	rjmp	.-54     	; 0x22e0 <_ZN7TwoWire11requestFromEhhmhh+0x3a>
    2316:	60 e0       	ldi	r22, 0x00	; 0
    2318:	c5 01       	movw	r24, r10
    231a:	b3 df       	rcall	.-154    	; 0x2282 <_ZN7TwoWire15endTransmissionEh>
    231c:	4d 2f       	mov	r20, r29
    231e:	d1 32       	cpi	r29, 0x21	; 33
    2320:	08 f0       	brcs	.+2      	; 0x2324 <_ZN7TwoWire11requestFromEhhmhh+0x7e>
    2322:	40 e2       	ldi	r20, 0x20	; 32
    2324:	2c 2d       	mov	r18, r12
    2326:	63 eb       	ldi	r22, 0xB3	; 179
    2328:	76 e0       	ldi	r23, 0x06	; 6
    232a:	8f 2d       	mov	r24, r15
    232c:	0f dd       	rcall	.-1506   	; 0x1d4c <twi_readFrom>
    232e:	10 92 b2 06 	sts	0x06B2, r1	; 0x8006b2 <_ZN7TwoWire13rxBufferIndexE>
    2332:	80 93 b1 06 	sts	0x06B1, r24	; 0x8006b1 <_ZN7TwoWire14rxBufferLengthE>
    2336:	df 91       	pop	r29
    2338:	cf 91       	pop	r28
    233a:	1f 91       	pop	r17
    233c:	0f 91       	pop	r16
    233e:	ff 90       	pop	r15
    2340:	ef 90       	pop	r14
    2342:	cf 90       	pop	r12
    2344:	bf 90       	pop	r11
    2346:	af 90       	pop	r10
    2348:	7f 90       	pop	r7
    234a:	6f 90       	pop	r6
    234c:	5f 90       	pop	r5
    234e:	4f 90       	pop	r4
    2350:	08 95       	ret

00002352 <_ZN7TwoWire11requestFromEhhh>:
    2352:	cf 92       	push	r12
    2354:	ef 92       	push	r14
    2356:	0f 93       	push	r16
    2358:	1f 93       	push	r17
    235a:	c2 2e       	mov	r12, r18
    235c:	e1 2c       	mov	r14, r1
    235e:	00 e0       	ldi	r16, 0x00	; 0
    2360:	10 e0       	ldi	r17, 0x00	; 0
    2362:	98 01       	movw	r18, r16
    2364:	a0 df       	rcall	.-192    	; 0x22a6 <_ZN7TwoWire11requestFromEhhmhh>
    2366:	1f 91       	pop	r17
    2368:	0f 91       	pop	r16
    236a:	ef 90       	pop	r14
    236c:	cf 90       	pop	r12
    236e:	08 95       	ret

00002370 <_ZN7TwoWire11requestFromEhh>:
    2370:	21 e0       	ldi	r18, 0x01	; 1
    2372:	ef cf       	rjmp	.-34     	; 0x2352 <_ZN7TwoWire11requestFromEhhh>
    2374:	08 95       	ret

00002376 <_ZN7TwoWire15endTransmissionEv>:
    2376:	61 e0       	ldi	r22, 0x01	; 1
    2378:	84 cf       	rjmp	.-248    	; 0x2282 <_ZN7TwoWire15endTransmissionEh>
    237a:	08 95       	ret

0000237c <_GLOBAL__sub_I__ZN7TwoWire8rxBufferE>:
void (*TwoWire::user_onRequest)(void);
void (*TwoWire::user_onReceive)(int);

// Constructors ////////////////////////////////////////////////////////////////

TwoWire::TwoWire()
    237c:	80 ec       	ldi	r24, 0xC0	; 192
    237e:	92 e0       	ldi	r25, 0x02	; 2
    2380:	90 93 8c 06 	sts	0x068C, r25	; 0x80068c <Wire+0x1>
    2384:	80 93 8b 06 	sts	0x068B, r24	; 0x80068b <Wire>
    2388:	08 95       	ret

0000238a <_ZN13DigitalSensor14IsValidRequestEPKhh>:

bool Robot::RegisterDevices(){
	RegisterDevice(BtnTest); //TODO return if successful
	
	return true;
}
    238a:	81 e0       	ldi	r24, 0x01	; 1
    238c:	41 11       	cpse	r20, r1
    238e:	80 e0       	ldi	r24, 0x00	; 0
    2390:	08 95       	ret

00002392 <_ZN13DigitalSensor15UpdateRequestedEPh>:
    2392:	fc 01       	movw	r30, r24
    2394:	a5 81       	ldd	r26, Z+5	; 0x05
    2396:	b6 81       	ldd	r27, Z+6	; 0x06
    2398:	9c 91       	ld	r25, X
    239a:	84 81       	ldd	r24, Z+4	; 0x04
    239c:	98 23       	and	r25, r24
    239e:	21 e0       	ldi	r18, 0x01	; 1
    23a0:	09 f4       	brne	.+2      	; 0x23a4 <_ZN13DigitalSensor15UpdateRequestedEPh+0x12>
    23a2:	20 e0       	ldi	r18, 0x00	; 0
    23a4:	87 81       	ldd	r24, Z+7	; 0x07
    23a6:	82 27       	eor	r24, r18
    23a8:	fb 01       	movw	r30, r22
    23aa:	80 83       	st	Z, r24
    23ac:	81 e0       	ldi	r24, 0x01	; 1
    23ae:	08 95       	ret

000023b0 <_ZN7ISensor6UpdateEPKhh>:
    23b0:	cf 93       	push	r28
    23b2:	df 93       	push	r29
    23b4:	ec 01       	movw	r28, r24
    23b6:	e8 81       	ld	r30, Y
    23b8:	f9 81       	ldd	r31, Y+1	; 0x01
    23ba:	02 80       	ldd	r0, Z+2	; 0x02
    23bc:	f3 81       	ldd	r31, Z+3	; 0x03
    23be:	e0 2d       	mov	r30, r0
    23c0:	19 95       	eicall
    23c2:	88 23       	and	r24, r24
    23c4:	a1 f0       	breq	.+40     	; 0x23ee <_ZN7ISensor6UpdateEPKhh+0x3e>
    23c6:	e0 91 00 02 	lds	r30, 0x0200	; 0x800200 <_ZN9EtherComm6bufferE>
    23ca:	f0 91 01 02 	lds	r31, 0x0201	; 0x800201 <_ZN9EtherComm6bufferE+0x1>
    23ce:	8a 81       	ldd	r24, Y+2	; 0x02
    23d0:	82 83       	std	Z+2, r24	; 0x02
    23d2:	bf 01       	movw	r22, r30
    23d4:	6d 5f       	subi	r22, 0xFD	; 253
    23d6:	7f 4f       	sbci	r23, 0xFF	; 255
    23d8:	e8 81       	ld	r30, Y
    23da:	f9 81       	ldd	r31, Y+1	; 0x01
    23dc:	04 80       	ldd	r0, Z+4	; 0x04
    23de:	f5 81       	ldd	r31, Z+5	; 0x05
    23e0:	e0 2d       	mov	r30, r0
    23e2:	ce 01       	movw	r24, r28
    23e4:	19 95       	eicall
    23e6:	61 e0       	ldi	r22, 0x01	; 1
    23e8:	68 0f       	add	r22, r24
    23ea:	83 e0       	ldi	r24, 0x03	; 3
    23ec:	d0 d8       	rcall	.-3680   	; 0x158e <_ZN9EtherComm11SendCommandEhh>
    23ee:	df 91       	pop	r29
    23f0:	cf 91       	pop	r28
    23f2:	08 95       	ret

000023f4 <_ZN5Robot6SetLedEb>:
    23f4:	88 23       	and	r24, r24
    23f6:	11 f0       	breq	.+4      	; 0x23fc <_ZN5Robot6SetLedEb+0x8>
    23f8:	2f 9a       	sbi	0x05, 7	; 5
    23fa:	08 95       	ret
    23fc:	2f 98       	cbi	0x05, 7	; 5
    23fe:	08 95       	ret

00002400 <_ZN5Robot14RegisterDeviceER7ISensor>:
    2400:	fc 01       	movw	r30, r24
    2402:	22 81       	ldd	r18, Z+2	; 0x02
    2404:	30 e0       	ldi	r19, 0x00	; 0
    2406:	f9 01       	movw	r30, r18
    2408:	ee 0f       	add	r30, r30
    240a:	ff 1f       	adc	r31, r31
    240c:	e5 52       	subi	r30, 0x25	; 37
    240e:	f9 4f       	sbci	r31, 0xF9	; 249
    2410:	40 81       	ld	r20, Z
    2412:	51 81       	ldd	r21, Z+1	; 0x01
    2414:	45 2b       	or	r20, r21
    2416:	39 f4       	brne	.+14     	; 0x2426 <_ZN5Robot14RegisterDeviceER7ISensor+0x26>
    2418:	22 0f       	add	r18, r18
    241a:	33 1f       	adc	r19, r19
    241c:	f9 01       	movw	r30, r18
    241e:	e5 52       	subi	r30, 0x25	; 37
    2420:	f9 4f       	sbci	r31, 0xF9	; 249
    2422:	91 83       	std	Z+1, r25	; 0x01
    2424:	80 83       	st	Z, r24
    2426:	08 95       	ret

00002428 <_ZN5Robot5beginEv>:
bool Robot::ReadTestBtn(){
	return !((TestBtnPinPort & TestBtnPin) > 0);
}

bool Robot::begin(){
	LedDDR |= LedPin;
    2428:	27 9a       	sbi	0x04, 7	; 4
IDevice* Robot::devices[NUM_DEVICES];

DigitalSensor BtnTest(0, TestBtnDDR, TestBtnPort, TestBtnPinPort, TestBtnPin);

bool Robot::RegisterDevices(){
	RegisterDevice(BtnTest); //TODO return if successful
    242a:	83 ed       	ldi	r24, 0xD3	; 211
    242c:	96 e0       	ldi	r25, 0x06	; 6
    242e:	e8 df       	rcall	.-48     	; 0x2400 <_ZN5Robot14RegisterDeviceER7ISensor>
}

bool Robot::begin(){
	LedDDR |= LedPin;
	return RegisterDevices();
}
    2430:	81 e0       	ldi	r24, 0x01	; 1
    2432:	08 95       	ret

00002434 <_GLOBAL__sub_I__ZN5Robot7devicesE>:
	}
	
	virtual void Update(const uint8_t* data, uint8_t len) = 0;
	
protected:
	IDevice(uint8_t ID) : id(ID){
    2434:	e3 ed       	ldi	r30, 0xD3	; 211
    2436:	f6 e0       	ldi	r31, 0x06	; 6
    2438:	12 82       	std	Z+2, r1	; 0x02
				//}
			}
		}
	
	protected:
		ISensor(uint8_t ID, uint8_t type) : IDevice(ID), sensorType(type) {
    243a:	81 e0       	ldi	r24, 0x01	; 1
    243c:	83 83       	std	Z+3, r24	; 0x03

#include "../ISensor.h"

class DigitalSensor : public ISensor{
public:
	DigitalSensor(uint8_t ID, Register& DDRPort, Register& PortPort, Register& PinPort, uint8_t Pin, bool Inversed = true) : ISensor(ID, SENSOR_TYPE_DIGITAL), pin(Pin), pinPort(&PinPort), inversed(Inversed) {
    243e:	22 ed       	ldi	r18, 0xD2	; 210
    2440:	32 e0       	ldi	r19, 0x02	; 2
    2442:	31 83       	std	Z+1, r19	; 0x01
    2444:	20 83       	st	Z, r18
    2446:	84 83       	std	Z+4, r24	; 0x04
    2448:	2f e2       	ldi	r18, 0x2F	; 47
    244a:	30 e0       	ldi	r19, 0x00	; 0
    244c:	36 83       	std	Z+6, r19	; 0x06
    244e:	25 83       	std	Z+5, r18	; 0x05
    2450:	87 83       	std	Z+7, r24	; 0x07
		DDRPort &= ~pin; //Enable input
    2452:	80 98       	cbi	0x10, 0	; 16
		PortPort |= pin; //Enable pullup
    2454:	88 9a       	sbi	0x11, 0	; 17
    2456:	08 95       	ret

00002458 <_GLOBAL__sub_I_bno>:
	setup();
	
	while(true){
		loop();
	}
    2458:	0f 93       	push	r16
    245a:	1f 93       	push	r17
/* Set the delay between fresh samples */
#define BNO055_SAMPLERATE_DELAY_MS 100

// Check I2C device address and correct line below (by default address is 0x29 or 0x28)
//                                   id, address
Adafruit_BNO055 bno = Adafruit_BNO055(55, 0x28);
    245c:	0b e8       	ldi	r16, 0x8B	; 139
    245e:	16 e0       	ldi	r17, 0x06	; 6
    2460:	28 e2       	ldi	r18, 0x28	; 40
    2462:	47 e3       	ldi	r20, 0x37	; 55
    2464:	50 e0       	ldi	r21, 0x00	; 0
    2466:	60 e0       	ldi	r22, 0x00	; 0
    2468:	70 e0       	ldi	r23, 0x00	; 0
    246a:	8b ed       	ldi	r24, 0xDB	; 219
    246c:	98 e0       	ldi	r25, 0x08	; 8
    246e:	0e 94 c4 01 	call	0x388	; 0x388 <_ZN15Adafruit_BNO055C1ElhP7TwoWire>
	setup();
	
	while(true){
		loop();
	}
    2472:	1f 91       	pop	r17
    2474:	0f 91       	pop	r16
    2476:	08 95       	ret

00002478 <_ZN5Print5writeEPKhj>:
}

uint16_t Print::print(char c)
{
  return write(c);
}
    2478:	cf 92       	push	r12
    247a:	df 92       	push	r13
    247c:	ef 92       	push	r14
    247e:	ff 92       	push	r15
    2480:	0f 93       	push	r16
    2482:	1f 93       	push	r17
    2484:	cf 93       	push	r28
    2486:	df 93       	push	r29
    2488:	41 15       	cp	r20, r1
    248a:	51 05       	cpc	r21, r1
    248c:	c1 f0       	breq	.+48     	; 0x24be <_ZN5Print5writeEPKhj+0x46>
    248e:	6a 01       	movw	r12, r20
    2490:	8c 01       	movw	r16, r24
    2492:	e6 2e       	mov	r14, r22
    2494:	f7 2e       	mov	r15, r23
    2496:	c0 e0       	ldi	r28, 0x00	; 0
    2498:	d0 e0       	ldi	r29, 0x00	; 0
    249a:	d7 01       	movw	r26, r14
    249c:	6d 91       	ld	r22, X+
    249e:	7d 01       	movw	r14, r26
    24a0:	d8 01       	movw	r26, r16
    24a2:	ed 91       	ld	r30, X+
    24a4:	fc 91       	ld	r31, X
    24a6:	01 90       	ld	r0, Z+
    24a8:	f0 81       	ld	r31, Z
    24aa:	e0 2d       	mov	r30, r0
    24ac:	c8 01       	movw	r24, r16
    24ae:	19 95       	eicall
    24b0:	89 2b       	or	r24, r25
    24b2:	39 f0       	breq	.+14     	; 0x24c2 <_ZN5Print5writeEPKhj+0x4a>
    24b4:	21 96       	adiw	r28, 0x01	; 1
    24b6:	cc 16       	cp	r12, r28
    24b8:	dd 06       	cpc	r13, r29
    24ba:	79 f7       	brne	.-34     	; 0x249a <_ZN5Print5writeEPKhj+0x22>
    24bc:	02 c0       	rjmp	.+4      	; 0x24c2 <_ZN5Print5writeEPKhj+0x4a>
    24be:	c0 e0       	ldi	r28, 0x00	; 0
    24c0:	d0 e0       	ldi	r29, 0x00	; 0
    24c2:	ce 01       	movw	r24, r28
    24c4:	df 91       	pop	r29
    24c6:	cf 91       	pop	r28
    24c8:	1f 91       	pop	r17
    24ca:	0f 91       	pop	r16
    24cc:	ff 90       	pop	r15
    24ce:	ef 90       	pop	r14
    24d0:	df 90       	pop	r13
    24d2:	cf 90       	pop	r12
    24d4:	08 95       	ret

000024d6 <_ZN5Print5printEPKc>:
    24d6:	61 15       	cp	r22, r1
    24d8:	71 05       	cpc	r23, r1
    24da:	81 f0       	breq	.+32     	; 0x24fc <_ZN5Print5printEPKc+0x26>
    24dc:	fb 01       	movw	r30, r22
    24de:	01 90       	ld	r0, Z+
    24e0:	00 20       	and	r0, r0
    24e2:	e9 f7       	brne	.-6      	; 0x24de <_ZN5Print5printEPKc+0x8>
    24e4:	31 97       	sbiw	r30, 0x01	; 1
    24e6:	af 01       	movw	r20, r30
    24e8:	46 1b       	sub	r20, r22
    24ea:	57 0b       	sbc	r21, r23
    24ec:	dc 01       	movw	r26, r24
    24ee:	ed 91       	ld	r30, X+
    24f0:	fc 91       	ld	r31, X
    24f2:	02 80       	ldd	r0, Z+2	; 0x02
    24f4:	f3 81       	ldd	r31, Z+3	; 0x03
    24f6:	e0 2d       	mov	r30, r0
    24f8:	19 95       	eicall
    24fa:	08 95       	ret
    24fc:	80 e0       	ldi	r24, 0x00	; 0
    24fe:	90 e0       	ldi	r25, 0x00	; 0
    2500:	08 95       	ret

00002502 <_ZN5Print7printlnEv>:
  //void clearWriteError() { setWriteError(0); }
  
  virtual uint16_t write(uint8_t) = 0;
  uint16_t write(const char *str) {
	  if (str == NULL) return 0;
	  return write((const uint8_t *)str, strlen(str));
    2502:	dc 01       	movw	r26, r24
    2504:	ed 91       	ld	r30, X+
    2506:	fc 91       	ld	r31, X
    2508:	02 80       	ldd	r0, Z+2	; 0x02
    250a:	f3 81       	ldd	r31, Z+3	; 0x03
    250c:	e0 2d       	mov	r30, r0
    250e:	42 e0       	ldi	r20, 0x02	; 2
    2510:	50 e0       	ldi	r21, 0x00	; 0
    2512:	68 ed       	ldi	r22, 0xD8	; 216
    2514:	72 e0       	ldi	r23, 0x02	; 2
    2516:	19 95       	eicall
}
*/
uint16_t Print::println(void)
{
  return write("\r\n");
}
    2518:	08 95       	ret

0000251a <_ZN5Print7printlnEPKc>:
  n += println();
  return n;
}
*/
uint16_t Print::println(const char c[])
{
    251a:	0f 93       	push	r16
    251c:	1f 93       	push	r17
    251e:	cf 93       	push	r28
    2520:	df 93       	push	r29
    2522:	ec 01       	movw	r28, r24
  uint16_t n = print(c);
    2524:	d8 df       	rcall	.-80     	; 0x24d6 <_ZN5Print5printEPKc>
    2526:	8c 01       	movw	r16, r24
  n += println();
    2528:	ce 01       	movw	r24, r28
    252a:	eb df       	rcall	.-42     	; 0x2502 <_ZN5Print7printlnEv>
  return n;
}
    252c:	80 0f       	add	r24, r16
    252e:	91 1f       	adc	r25, r17
    2530:	df 91       	pop	r29
    2532:	cf 91       	pop	r28
    2534:	1f 91       	pop	r17
    2536:	0f 91       	pop	r16
    2538:	08 95       	ret

0000253a <__divsf3>:
    253a:	0c d0       	rcall	.+24     	; 0x2554 <__divsf3x>
    253c:	ba c0       	rjmp	.+372    	; 0x26b2 <__fp_round>
    253e:	b2 d0       	rcall	.+356    	; 0x26a4 <__fp_pscB>
    2540:	40 f0       	brcs	.+16     	; 0x2552 <__divsf3+0x18>
    2542:	a9 d0       	rcall	.+338    	; 0x2696 <__fp_pscA>
    2544:	30 f0       	brcs	.+12     	; 0x2552 <__divsf3+0x18>
    2546:	21 f4       	brne	.+8      	; 0x2550 <__divsf3+0x16>
    2548:	5f 3f       	cpi	r21, 0xFF	; 255
    254a:	19 f0       	breq	.+6      	; 0x2552 <__divsf3+0x18>
    254c:	9b c0       	rjmp	.+310    	; 0x2684 <__fp_inf>
    254e:	51 11       	cpse	r21, r1
    2550:	e4 c0       	rjmp	.+456    	; 0x271a <__fp_szero>
    2552:	9e c0       	rjmp	.+316    	; 0x2690 <__fp_nan>

00002554 <__divsf3x>:
    2554:	bf d0       	rcall	.+382    	; 0x26d4 <__fp_split3>
    2556:	98 f3       	brcs	.-26     	; 0x253e <__divsf3+0x4>

00002558 <__divsf3_pse>:
    2558:	99 23       	and	r25, r25
    255a:	c9 f3       	breq	.-14     	; 0x254e <__divsf3+0x14>
    255c:	55 23       	and	r21, r21
    255e:	b1 f3       	breq	.-20     	; 0x254c <__divsf3+0x12>
    2560:	95 1b       	sub	r25, r21
    2562:	55 0b       	sbc	r21, r21
    2564:	bb 27       	eor	r27, r27
    2566:	aa 27       	eor	r26, r26
    2568:	62 17       	cp	r22, r18
    256a:	73 07       	cpc	r23, r19
    256c:	84 07       	cpc	r24, r20
    256e:	38 f0       	brcs	.+14     	; 0x257e <__divsf3_pse+0x26>
    2570:	9f 5f       	subi	r25, 0xFF	; 255
    2572:	5f 4f       	sbci	r21, 0xFF	; 255
    2574:	22 0f       	add	r18, r18
    2576:	33 1f       	adc	r19, r19
    2578:	44 1f       	adc	r20, r20
    257a:	aa 1f       	adc	r26, r26
    257c:	a9 f3       	breq	.-22     	; 0x2568 <__divsf3_pse+0x10>
    257e:	33 d0       	rcall	.+102    	; 0x25e6 <__divsf3_pse+0x8e>
    2580:	0e 2e       	mov	r0, r30
    2582:	3a f0       	brmi	.+14     	; 0x2592 <__divsf3_pse+0x3a>
    2584:	e0 e8       	ldi	r30, 0x80	; 128
    2586:	30 d0       	rcall	.+96     	; 0x25e8 <__divsf3_pse+0x90>
    2588:	91 50       	subi	r25, 0x01	; 1
    258a:	50 40       	sbci	r21, 0x00	; 0
    258c:	e6 95       	lsr	r30
    258e:	00 1c       	adc	r0, r0
    2590:	ca f7       	brpl	.-14     	; 0x2584 <__divsf3_pse+0x2c>
    2592:	29 d0       	rcall	.+82     	; 0x25e6 <__divsf3_pse+0x8e>
    2594:	fe 2f       	mov	r31, r30
    2596:	27 d0       	rcall	.+78     	; 0x25e6 <__divsf3_pse+0x8e>
    2598:	66 0f       	add	r22, r22
    259a:	77 1f       	adc	r23, r23
    259c:	88 1f       	adc	r24, r24
    259e:	bb 1f       	adc	r27, r27
    25a0:	26 17       	cp	r18, r22
    25a2:	37 07       	cpc	r19, r23
    25a4:	48 07       	cpc	r20, r24
    25a6:	ab 07       	cpc	r26, r27
    25a8:	b0 e8       	ldi	r27, 0x80	; 128
    25aa:	09 f0       	breq	.+2      	; 0x25ae <__divsf3_pse+0x56>
    25ac:	bb 0b       	sbc	r27, r27
    25ae:	80 2d       	mov	r24, r0
    25b0:	bf 01       	movw	r22, r30
    25b2:	ff 27       	eor	r31, r31
    25b4:	93 58       	subi	r25, 0x83	; 131
    25b6:	5f 4f       	sbci	r21, 0xFF	; 255
    25b8:	2a f0       	brmi	.+10     	; 0x25c4 <__divsf3_pse+0x6c>
    25ba:	9e 3f       	cpi	r25, 0xFE	; 254
    25bc:	51 05       	cpc	r21, r1
    25be:	68 f0       	brcs	.+26     	; 0x25da <__divsf3_pse+0x82>
    25c0:	61 c0       	rjmp	.+194    	; 0x2684 <__fp_inf>
    25c2:	ab c0       	rjmp	.+342    	; 0x271a <__fp_szero>
    25c4:	5f 3f       	cpi	r21, 0xFF	; 255
    25c6:	ec f3       	brlt	.-6      	; 0x25c2 <__divsf3_pse+0x6a>
    25c8:	98 3e       	cpi	r25, 0xE8	; 232
    25ca:	dc f3       	brlt	.-10     	; 0x25c2 <__divsf3_pse+0x6a>
    25cc:	86 95       	lsr	r24
    25ce:	77 95       	ror	r23
    25d0:	67 95       	ror	r22
    25d2:	b7 95       	ror	r27
    25d4:	f7 95       	ror	r31
    25d6:	9f 5f       	subi	r25, 0xFF	; 255
    25d8:	c9 f7       	brne	.-14     	; 0x25cc <__divsf3_pse+0x74>
    25da:	88 0f       	add	r24, r24
    25dc:	91 1d       	adc	r25, r1
    25de:	96 95       	lsr	r25
    25e0:	87 95       	ror	r24
    25e2:	97 f9       	bld	r25, 7
    25e4:	08 95       	ret
    25e6:	e1 e0       	ldi	r30, 0x01	; 1
    25e8:	66 0f       	add	r22, r22
    25ea:	77 1f       	adc	r23, r23
    25ec:	88 1f       	adc	r24, r24
    25ee:	bb 1f       	adc	r27, r27
    25f0:	62 17       	cp	r22, r18
    25f2:	73 07       	cpc	r23, r19
    25f4:	84 07       	cpc	r24, r20
    25f6:	ba 07       	cpc	r27, r26
    25f8:	20 f0       	brcs	.+8      	; 0x2602 <__divsf3_pse+0xaa>
    25fa:	62 1b       	sub	r22, r18
    25fc:	73 0b       	sbc	r23, r19
    25fe:	84 0b       	sbc	r24, r20
    2600:	ba 0b       	sbc	r27, r26
    2602:	ee 1f       	adc	r30, r30
    2604:	88 f7       	brcc	.-30     	; 0x25e8 <__divsf3_pse+0x90>
    2606:	e0 95       	com	r30
    2608:	08 95       	ret

0000260a <__floatunsisf>:
    260a:	e8 94       	clt
    260c:	09 c0       	rjmp	.+18     	; 0x2620 <__floatsisf+0x12>

0000260e <__floatsisf>:
    260e:	97 fb       	bst	r25, 7
    2610:	3e f4       	brtc	.+14     	; 0x2620 <__floatsisf+0x12>
    2612:	90 95       	com	r25
    2614:	80 95       	com	r24
    2616:	70 95       	com	r23
    2618:	61 95       	neg	r22
    261a:	7f 4f       	sbci	r23, 0xFF	; 255
    261c:	8f 4f       	sbci	r24, 0xFF	; 255
    261e:	9f 4f       	sbci	r25, 0xFF	; 255
    2620:	99 23       	and	r25, r25
    2622:	a9 f0       	breq	.+42     	; 0x264e <__floatsisf+0x40>
    2624:	f9 2f       	mov	r31, r25
    2626:	96 e9       	ldi	r25, 0x96	; 150
    2628:	bb 27       	eor	r27, r27
    262a:	93 95       	inc	r25
    262c:	f6 95       	lsr	r31
    262e:	87 95       	ror	r24
    2630:	77 95       	ror	r23
    2632:	67 95       	ror	r22
    2634:	b7 95       	ror	r27
    2636:	f1 11       	cpse	r31, r1
    2638:	f8 cf       	rjmp	.-16     	; 0x262a <__floatsisf+0x1c>
    263a:	fa f4       	brpl	.+62     	; 0x267a <__floatsisf+0x6c>
    263c:	bb 0f       	add	r27, r27
    263e:	11 f4       	brne	.+4      	; 0x2644 <__floatsisf+0x36>
    2640:	60 ff       	sbrs	r22, 0
    2642:	1b c0       	rjmp	.+54     	; 0x267a <__floatsisf+0x6c>
    2644:	6f 5f       	subi	r22, 0xFF	; 255
    2646:	7f 4f       	sbci	r23, 0xFF	; 255
    2648:	8f 4f       	sbci	r24, 0xFF	; 255
    264a:	9f 4f       	sbci	r25, 0xFF	; 255
    264c:	16 c0       	rjmp	.+44     	; 0x267a <__floatsisf+0x6c>
    264e:	88 23       	and	r24, r24
    2650:	11 f0       	breq	.+4      	; 0x2656 <__floatsisf+0x48>
    2652:	96 e9       	ldi	r25, 0x96	; 150
    2654:	11 c0       	rjmp	.+34     	; 0x2678 <__floatsisf+0x6a>
    2656:	77 23       	and	r23, r23
    2658:	21 f0       	breq	.+8      	; 0x2662 <__floatsisf+0x54>
    265a:	9e e8       	ldi	r25, 0x8E	; 142
    265c:	87 2f       	mov	r24, r23
    265e:	76 2f       	mov	r23, r22
    2660:	05 c0       	rjmp	.+10     	; 0x266c <__floatsisf+0x5e>
    2662:	66 23       	and	r22, r22
    2664:	71 f0       	breq	.+28     	; 0x2682 <__floatsisf+0x74>
    2666:	96 e8       	ldi	r25, 0x86	; 134
    2668:	86 2f       	mov	r24, r22
    266a:	70 e0       	ldi	r23, 0x00	; 0
    266c:	60 e0       	ldi	r22, 0x00	; 0
    266e:	2a f0       	brmi	.+10     	; 0x267a <__floatsisf+0x6c>
    2670:	9a 95       	dec	r25
    2672:	66 0f       	add	r22, r22
    2674:	77 1f       	adc	r23, r23
    2676:	88 1f       	adc	r24, r24
    2678:	da f7       	brpl	.-10     	; 0x2670 <__floatsisf+0x62>
    267a:	88 0f       	add	r24, r24
    267c:	96 95       	lsr	r25
    267e:	87 95       	ror	r24
    2680:	97 f9       	bld	r25, 7
    2682:	08 95       	ret

00002684 <__fp_inf>:
    2684:	97 f9       	bld	r25, 7
    2686:	9f 67       	ori	r25, 0x7F	; 127
    2688:	80 e8       	ldi	r24, 0x80	; 128
    268a:	70 e0       	ldi	r23, 0x00	; 0
    268c:	60 e0       	ldi	r22, 0x00	; 0
    268e:	08 95       	ret

00002690 <__fp_nan>:
    2690:	9f ef       	ldi	r25, 0xFF	; 255
    2692:	80 ec       	ldi	r24, 0xC0	; 192
    2694:	08 95       	ret

00002696 <__fp_pscA>:
    2696:	00 24       	eor	r0, r0
    2698:	0a 94       	dec	r0
    269a:	16 16       	cp	r1, r22
    269c:	17 06       	cpc	r1, r23
    269e:	18 06       	cpc	r1, r24
    26a0:	09 06       	cpc	r0, r25
    26a2:	08 95       	ret

000026a4 <__fp_pscB>:
    26a4:	00 24       	eor	r0, r0
    26a6:	0a 94       	dec	r0
    26a8:	12 16       	cp	r1, r18
    26aa:	13 06       	cpc	r1, r19
    26ac:	14 06       	cpc	r1, r20
    26ae:	05 06       	cpc	r0, r21
    26b0:	08 95       	ret

000026b2 <__fp_round>:
    26b2:	09 2e       	mov	r0, r25
    26b4:	03 94       	inc	r0
    26b6:	00 0c       	add	r0, r0
    26b8:	11 f4       	brne	.+4      	; 0x26be <__fp_round+0xc>
    26ba:	88 23       	and	r24, r24
    26bc:	52 f0       	brmi	.+20     	; 0x26d2 <__fp_round+0x20>
    26be:	bb 0f       	add	r27, r27
    26c0:	40 f4       	brcc	.+16     	; 0x26d2 <__fp_round+0x20>
    26c2:	bf 2b       	or	r27, r31
    26c4:	11 f4       	brne	.+4      	; 0x26ca <__fp_round+0x18>
    26c6:	60 ff       	sbrs	r22, 0
    26c8:	04 c0       	rjmp	.+8      	; 0x26d2 <__fp_round+0x20>
    26ca:	6f 5f       	subi	r22, 0xFF	; 255
    26cc:	7f 4f       	sbci	r23, 0xFF	; 255
    26ce:	8f 4f       	sbci	r24, 0xFF	; 255
    26d0:	9f 4f       	sbci	r25, 0xFF	; 255
    26d2:	08 95       	ret

000026d4 <__fp_split3>:
    26d4:	57 fd       	sbrc	r21, 7
    26d6:	90 58       	subi	r25, 0x80	; 128
    26d8:	44 0f       	add	r20, r20
    26da:	55 1f       	adc	r21, r21
    26dc:	59 f0       	breq	.+22     	; 0x26f4 <__fp_splitA+0x10>
    26de:	5f 3f       	cpi	r21, 0xFF	; 255
    26e0:	71 f0       	breq	.+28     	; 0x26fe <__fp_splitA+0x1a>
    26e2:	47 95       	ror	r20

000026e4 <__fp_splitA>:
    26e4:	88 0f       	add	r24, r24
    26e6:	97 fb       	bst	r25, 7
    26e8:	99 1f       	adc	r25, r25
    26ea:	61 f0       	breq	.+24     	; 0x2704 <__fp_splitA+0x20>
    26ec:	9f 3f       	cpi	r25, 0xFF	; 255
    26ee:	79 f0       	breq	.+30     	; 0x270e <__fp_splitA+0x2a>
    26f0:	87 95       	ror	r24
    26f2:	08 95       	ret
    26f4:	12 16       	cp	r1, r18
    26f6:	13 06       	cpc	r1, r19
    26f8:	14 06       	cpc	r1, r20
    26fa:	55 1f       	adc	r21, r21
    26fc:	f2 cf       	rjmp	.-28     	; 0x26e2 <__fp_split3+0xe>
    26fe:	46 95       	lsr	r20
    2700:	f1 df       	rcall	.-30     	; 0x26e4 <__fp_splitA>
    2702:	08 c0       	rjmp	.+16     	; 0x2714 <__fp_splitA+0x30>
    2704:	16 16       	cp	r1, r22
    2706:	17 06       	cpc	r1, r23
    2708:	18 06       	cpc	r1, r24
    270a:	99 1f       	adc	r25, r25
    270c:	f1 cf       	rjmp	.-30     	; 0x26f0 <__fp_splitA+0xc>
    270e:	86 95       	lsr	r24
    2710:	71 05       	cpc	r23, r1
    2712:	61 05       	cpc	r22, r1
    2714:	08 94       	sec
    2716:	08 95       	ret

00002718 <__fp_zero>:
    2718:	e8 94       	clt

0000271a <__fp_szero>:
    271a:	bb 27       	eor	r27, r27
    271c:	66 27       	eor	r22, r22
    271e:	77 27       	eor	r23, r23
    2720:	cb 01       	movw	r24, r22
    2722:	97 f9       	bld	r25, 7
    2724:	08 95       	ret

00002726 <__mulsf3>:
    2726:	0b d0       	rcall	.+22     	; 0x273e <__mulsf3x>
    2728:	c4 cf       	rjmp	.-120    	; 0x26b2 <__fp_round>
    272a:	b5 df       	rcall	.-150    	; 0x2696 <__fp_pscA>
    272c:	28 f0       	brcs	.+10     	; 0x2738 <__mulsf3+0x12>
    272e:	ba df       	rcall	.-140    	; 0x26a4 <__fp_pscB>
    2730:	18 f0       	brcs	.+6      	; 0x2738 <__mulsf3+0x12>
    2732:	95 23       	and	r25, r21
    2734:	09 f0       	breq	.+2      	; 0x2738 <__mulsf3+0x12>
    2736:	a6 cf       	rjmp	.-180    	; 0x2684 <__fp_inf>
    2738:	ab cf       	rjmp	.-170    	; 0x2690 <__fp_nan>
    273a:	11 24       	eor	r1, r1
    273c:	ee cf       	rjmp	.-36     	; 0x271a <__fp_szero>

0000273e <__mulsf3x>:
    273e:	ca df       	rcall	.-108    	; 0x26d4 <__fp_split3>
    2740:	a0 f3       	brcs	.-24     	; 0x272a <__mulsf3+0x4>

00002742 <__mulsf3_pse>:
    2742:	95 9f       	mul	r25, r21
    2744:	d1 f3       	breq	.-12     	; 0x273a <__mulsf3+0x14>
    2746:	95 0f       	add	r25, r21
    2748:	50 e0       	ldi	r21, 0x00	; 0
    274a:	55 1f       	adc	r21, r21
    274c:	62 9f       	mul	r22, r18
    274e:	f0 01       	movw	r30, r0
    2750:	72 9f       	mul	r23, r18
    2752:	bb 27       	eor	r27, r27
    2754:	f0 0d       	add	r31, r0
    2756:	b1 1d       	adc	r27, r1
    2758:	63 9f       	mul	r22, r19
    275a:	aa 27       	eor	r26, r26
    275c:	f0 0d       	add	r31, r0
    275e:	b1 1d       	adc	r27, r1
    2760:	aa 1f       	adc	r26, r26
    2762:	64 9f       	mul	r22, r20
    2764:	66 27       	eor	r22, r22
    2766:	b0 0d       	add	r27, r0
    2768:	a1 1d       	adc	r26, r1
    276a:	66 1f       	adc	r22, r22
    276c:	82 9f       	mul	r24, r18
    276e:	22 27       	eor	r18, r18
    2770:	b0 0d       	add	r27, r0
    2772:	a1 1d       	adc	r26, r1
    2774:	62 1f       	adc	r22, r18
    2776:	73 9f       	mul	r23, r19
    2778:	b0 0d       	add	r27, r0
    277a:	a1 1d       	adc	r26, r1
    277c:	62 1f       	adc	r22, r18
    277e:	83 9f       	mul	r24, r19
    2780:	a0 0d       	add	r26, r0
    2782:	61 1d       	adc	r22, r1
    2784:	22 1f       	adc	r18, r18
    2786:	74 9f       	mul	r23, r20
    2788:	33 27       	eor	r19, r19
    278a:	a0 0d       	add	r26, r0
    278c:	61 1d       	adc	r22, r1
    278e:	23 1f       	adc	r18, r19
    2790:	84 9f       	mul	r24, r20
    2792:	60 0d       	add	r22, r0
    2794:	21 1d       	adc	r18, r1
    2796:	82 2f       	mov	r24, r18
    2798:	76 2f       	mov	r23, r22
    279a:	6a 2f       	mov	r22, r26
    279c:	11 24       	eor	r1, r1
    279e:	9f 57       	subi	r25, 0x7F	; 127
    27a0:	50 40       	sbci	r21, 0x00	; 0
    27a2:	8a f0       	brmi	.+34     	; 0x27c6 <__mulsf3_pse+0x84>
    27a4:	e1 f0       	breq	.+56     	; 0x27de <__mulsf3_pse+0x9c>
    27a6:	88 23       	and	r24, r24
    27a8:	4a f0       	brmi	.+18     	; 0x27bc <__mulsf3_pse+0x7a>
    27aa:	ee 0f       	add	r30, r30
    27ac:	ff 1f       	adc	r31, r31
    27ae:	bb 1f       	adc	r27, r27
    27b0:	66 1f       	adc	r22, r22
    27b2:	77 1f       	adc	r23, r23
    27b4:	88 1f       	adc	r24, r24
    27b6:	91 50       	subi	r25, 0x01	; 1
    27b8:	50 40       	sbci	r21, 0x00	; 0
    27ba:	a9 f7       	brne	.-22     	; 0x27a6 <__mulsf3_pse+0x64>
    27bc:	9e 3f       	cpi	r25, 0xFE	; 254
    27be:	51 05       	cpc	r21, r1
    27c0:	70 f0       	brcs	.+28     	; 0x27de <__mulsf3_pse+0x9c>
    27c2:	60 cf       	rjmp	.-320    	; 0x2684 <__fp_inf>
    27c4:	aa cf       	rjmp	.-172    	; 0x271a <__fp_szero>
    27c6:	5f 3f       	cpi	r21, 0xFF	; 255
    27c8:	ec f3       	brlt	.-6      	; 0x27c4 <__mulsf3_pse+0x82>
    27ca:	98 3e       	cpi	r25, 0xE8	; 232
    27cc:	dc f3       	brlt	.-10     	; 0x27c4 <__mulsf3_pse+0x82>
    27ce:	86 95       	lsr	r24
    27d0:	77 95       	ror	r23
    27d2:	67 95       	ror	r22
    27d4:	b7 95       	ror	r27
    27d6:	f7 95       	ror	r31
    27d8:	e7 95       	ror	r30
    27da:	9f 5f       	subi	r25, 0xFF	; 255
    27dc:	c1 f7       	brne	.-16     	; 0x27ce <__mulsf3_pse+0x8c>
    27de:	fe 2b       	or	r31, r30
    27e0:	88 0f       	add	r24, r24
    27e2:	91 1d       	adc	r25, r1
    27e4:	96 95       	lsr	r25
    27e6:	87 95       	ror	r24
    27e8:	97 f9       	bld	r25, 7
    27ea:	08 95       	ret

000027ec <__udivmodsi4>:
    27ec:	a1 e2       	ldi	r26, 0x21	; 33
    27ee:	1a 2e       	mov	r1, r26
    27f0:	aa 1b       	sub	r26, r26
    27f2:	bb 1b       	sub	r27, r27
    27f4:	fd 01       	movw	r30, r26
    27f6:	0d c0       	rjmp	.+26     	; 0x2812 <__udivmodsi4_ep>

000027f8 <__udivmodsi4_loop>:
    27f8:	aa 1f       	adc	r26, r26
    27fa:	bb 1f       	adc	r27, r27
    27fc:	ee 1f       	adc	r30, r30
    27fe:	ff 1f       	adc	r31, r31
    2800:	a2 17       	cp	r26, r18
    2802:	b3 07       	cpc	r27, r19
    2804:	e4 07       	cpc	r30, r20
    2806:	f5 07       	cpc	r31, r21
    2808:	20 f0       	brcs	.+8      	; 0x2812 <__udivmodsi4_ep>
    280a:	a2 1b       	sub	r26, r18
    280c:	b3 0b       	sbc	r27, r19
    280e:	e4 0b       	sbc	r30, r20
    2810:	f5 0b       	sbc	r31, r21

00002812 <__udivmodsi4_ep>:
    2812:	66 1f       	adc	r22, r22
    2814:	77 1f       	adc	r23, r23
    2816:	88 1f       	adc	r24, r24
    2818:	99 1f       	adc	r25, r25
    281a:	1a 94       	dec	r1
    281c:	69 f7       	brne	.-38     	; 0x27f8 <__udivmodsi4_loop>
    281e:	60 95       	com	r22
    2820:	70 95       	com	r23
    2822:	80 95       	com	r24
    2824:	90 95       	com	r25
    2826:	9b 01       	movw	r18, r22
    2828:	ac 01       	movw	r20, r24
    282a:	bd 01       	movw	r22, r26
    282c:	cf 01       	movw	r24, r30
    282e:	08 95       	ret

00002830 <__tablejump2__>:
    2830:	ee 0f       	add	r30, r30
    2832:	ff 1f       	adc	r31, r31
    2834:	88 1f       	adc	r24, r24
    2836:	8b bf       	out	0x3b, r24	; 59
    2838:	07 90       	elpm	r0, Z+
    283a:	f6 91       	elpm	r31, Z
    283c:	e0 2d       	mov	r30, r0
    283e:	19 94       	eijmp

00002840 <memcpy_P>:
    2840:	fb 01       	movw	r30, r22
    2842:	dc 01       	movw	r26, r24
    2844:	02 c0       	rjmp	.+4      	; 0x284a <memcpy_P+0xa>
    2846:	05 90       	lpm	r0, Z+
    2848:	0d 92       	st	X+, r0
    284a:	41 50       	subi	r20, 0x01	; 1
    284c:	50 40       	sbci	r21, 0x00	; 0
    284e:	d8 f7       	brcc	.-10     	; 0x2846 <memcpy_P+0x6>
    2850:	08 95       	ret

00002852 <memcmp>:
    2852:	fb 01       	movw	r30, r22
    2854:	dc 01       	movw	r26, r24
    2856:	04 c0       	rjmp	.+8      	; 0x2860 <memcmp+0xe>
    2858:	8d 91       	ld	r24, X+
    285a:	01 90       	ld	r0, Z+
    285c:	80 19       	sub	r24, r0
    285e:	21 f4       	brne	.+8      	; 0x2868 <memcmp+0x16>
    2860:	41 50       	subi	r20, 0x01	; 1
    2862:	50 40       	sbci	r21, 0x00	; 0
    2864:	c8 f7       	brcc	.-14     	; 0x2858 <memcmp+0x6>
    2866:	88 1b       	sub	r24, r24
    2868:	99 0b       	sbc	r25, r25
    286a:	08 95       	ret

0000286c <strncpy>:
    286c:	fb 01       	movw	r30, r22
    286e:	dc 01       	movw	r26, r24
    2870:	41 50       	subi	r20, 0x01	; 1
    2872:	50 40       	sbci	r21, 0x00	; 0
    2874:	48 f0       	brcs	.+18     	; 0x2888 <strncpy+0x1c>
    2876:	01 90       	ld	r0, Z+
    2878:	0d 92       	st	X+, r0
    287a:	00 20       	and	r0, r0
    287c:	c9 f7       	brne	.-14     	; 0x2870 <strncpy+0x4>
    287e:	01 c0       	rjmp	.+2      	; 0x2882 <strncpy+0x16>
    2880:	1d 92       	st	X+, r1
    2882:	41 50       	subi	r20, 0x01	; 1
    2884:	50 40       	sbci	r21, 0x00	; 0
    2886:	e0 f7       	brcc	.-8      	; 0x2880 <strncpy+0x14>
    2888:	08 95       	ret

0000288a <_exit>:
    288a:	f8 94       	cli

0000288c <__stop_program>:
    288c:	ff cf       	rjmp	.-2      	; 0x288c <__stop_program>
